

HI-TECH Software PIC PRO Macro Assembler V9.83 build 10920 
                                                                                               Thu Feb 13 10:36:13 2020

HI-TECH Software Omniscient Code Generator (PRO mode) build 10920
     1                           	processor	16F685
     2                           	opt	pw 120
     3                           	opt	pm
     4                           	psect	text456,local,class=CODE,delta=2
     5                           	psect	cinit,global,class=CODE,delta=2
     6                           	psect	bssCOMMON,global,class=COMMON,space=1,delta=1
     7                           	psect	bssBANK0,global,class=BANK0,space=1,delta=1
     8                           	psect	cstackCOMMON,global,class=COMMON,space=1,delta=1
     9                           	psect	cstackBANK0,global,class=BANK0,space=1,delta=1
    10                           	psect	maintext,global,class=CODE,delta=2
    11                           	psect	swtext1,local,class=CONST,delta=2
    12                           	psect	text457,local,class=CODE,delta=2
    13                           	psect	text458,local,class=CODE,delta=2
    14                           	psect	text459,local,class=CODE,delta=2
    15                           	psect	text460,local,class=CODE,delta=2
    16                           	psect	text461,local,class=CODE,delta=2
    17                           	psect	text462,local,class=CODE,delta=2
    18                           	psect	text463,local,class=CODE,delta=2
    19                           	psect	text464,local,class=CODE,delta=2
    20                           	psect	text465,local,class=CODE,delta=2
    21                           	psect	text466,local,class=CODE,delta=2
    22                           	psect	text467,local,class=CODE,delta=2
    23                           	psect	text468,local,class=CODE,delta=2
    24                           	psect	intentry,global,class=CODE,delta=2
    25                           	psect	text469,local,class=CODE,delta=2
    26                           	psect	pa_nodes,global,class=CODE,delta=2
    27                           	dabs	1,0x11E,1
    28                           	dabs	1,0x11F,1
    29                           	dabs	1,0x119,1
    30                           	dabs	1,0x11A,1
    31                           	dabs	1,0x11B,1
    32                           	dabs	1,0x10F,1
    33                           	dabs	1,0x10E,1
    34                           	dabs	1,0x116,1
    35                           	dabs	1,0x19D,1
    36                           	dabs	1,0x19E,1
    37                           	dabs	1,0x118,1
    38                           	dabs	1,0x115,1
    39                           	dabs	1,0x11E,1
    40                           	dabs	1,0x11E,1
    41                           	dabs	1,0x11F,1
    42                           	dabs	1,0x11F,1
    43                           	dabs	1,0x11E,1
    44                           	dabs	1,0x11E,1
    45                           	dabs	1,0x11E,1
    46                           	dabs	1,0x11E,1
    47                           	dabs	1,0x11E,1
    48                           	dabs	1,0x11E,1
    49                           	dabs	1,0x11F,1
    50                           	dabs	1,0x11F,1
    51                           	dabs	1,0x119,1
    52                           	dabs	1,0x119,1
    53                           	dabs	1,0x119,1
    54                           	dabs	1,0x119,1
    55                           	dabs	1,0x119,1
    56                           	dabs	1,0x119,1
    57                           	dabs	1,0x119,1
    58                           	dabs	1,0x19E,1
    59                           	dabs	1,0x118,1
    60                           	dabs	1,0x11A,1
    61                           	dabs	1,0x11A,1
    62                           	dabs	1,0x11A,1
    63                           	dabs	1,0x11A,1
    64                           	dabs	1,0x11A,1
    65                           	dabs	1,0x11A,1
    66                           	dabs	1,0x11A,1
    67                           	dabs	1,0x19E,1
    68                           	dabs	1,0x11B,1
    69                           	dabs	1,0x118,1
    70                           	dabs	1,0x18C,1
    71                           	dabs	1,0x116,1
    72                           	dabs	1,0x116,1
    73                           	dabs	1,0x116,1
    74                           	dabs	1,0x116,1
    75                           	dabs	1,0x11B,1
    76                           	dabs	1,0x11B,1
    77                           	dabs	1,0x19E,1
    78                           	dabs	1,0x19E,1
    79                           	dabs	1,0x19E,1
    80                           	dabs	1,0x19E,1
    81                           	dabs	1,0x19D,1
    82                           	dabs	1,0x19D,1
    83                           	dabs	1,0x19D,1
    84                           	dabs	1,0x19D,1
    85                           	dabs	1,0x19D,1
    86                           	dabs	1,0x11B,1
    87                           	dabs	1,0x118,1
    88                           	dabs	1,0x118,1
    89                           	dabs	1,0x118,1
    90                           	dabs	1,0x118,1
    91                           	dabs	1,0x118,1
    92                           	dabs	1,0x118,1
    93                           	dabs	1,0x115,1
    94                           	dabs	1,0x115,1
    95                           	dabs	1,0x115,1
    96                           	dabs	1,0x115,1
    97                           	dabs	1,0x18C,1
    98                           	dabs	1,0x7E,2
    99  000A                     
   100                           	psect	text456
   101  0000                     __ptext456:	
   102  011E                     _ANSEL	set	286	;_ANSEL
   103  011F                     _ANSELH	set	287	;_ANSELH
   104  0119                     _CM1CON0	set	281	;_CM1CON0
   105  011A                     _CM2CON0	set	282	;_CM2CON0
   106  011B                     _CM2CON1	set	283	;_CM2CON1
   107  010F                     _EEADRH	set	271	;_EEADRH
   108  010E                     _EEDATH	set	270	;_EEDATH
   109  0116                     _IOCB	set	278	;_IOCB
   110  019D                     _PSTRCON	set	413	;_PSTRCON
   111  019E                     _SRCON	set	414	;_SRCON
   112  0118                     _VRCON	set	280	;_VRCON
   113  0115                     _WPUB	set	277	;_WPUB
   114  08F0                     _ANS0	set	2288	;_ANS0
   115  08F1                     _ANS1	set	2289	;_ANS1
   116  08FA                     _ANS10	set	2298	;_ANS10
   117  08FB                     _ANS11	set	2299	;_ANS11
   118  08F2                     _ANS2	set	2290	;_ANS2
   119  08F3                     _ANS3	set	2291	;_ANS3
   120  08F4                     _ANS4	set	2292	;_ANS4
   121  08F5                     _ANS5	set	2293	;_ANS5
   122  08F6                     _ANS6	set	2294	;_ANS6
   123  08F7                     _ANS7	set	2295	;_ANS7
   124  08F8                     _ANS8	set	2296	;_ANS8
   125  08F9                     _ANS9	set	2297	;_ANS9
   126  08C8                     _C1CH0	set	2248	;_C1CH0
   127  08C9                     _C1CH1	set	2249	;_C1CH1
   128  08CD                     _C1OE	set	2253	;_C1OE
   129  08CF                     _C1ON	set	2255	;_C1ON
   130  08CE                     _C1OUT	set	2254	;_C1OUT
   131  08CC                     _C1POL	set	2252	;_C1POL
   132  08CA                     _C1R	set	2250	;_C1R
   133  0CF5                     _C1SEN	set	3317	;_C1SEN
   134  08C7                     _C1VREN	set	2247	;_C1VREN
   135  08D0                     _C2CH0	set	2256	;_C2CH0
   136  08D1                     _C2CH1	set	2257	;_C2CH1
   137  08D5                     _C2OE	set	2261	;_C2OE
   138  08D7                     _C2ON	set	2263	;_C2ON
   139  08D6                     _C2OUT	set	2262	;_C2OUT
   140  08D4                     _C2POL	set	2260	;_C2POL
   141  08D2                     _C2R	set	2258	;_C2R
   142  0CF4                     _C2REN	set	3316	;_C2REN
   143  08D8                     _C2SYNC	set	2264	;_C2SYNC
   144  08C6                     _C2VREN	set	2246	;_C2VREN
   145  0C67                     _EEPGD	set	3175	;_EEPGD
   146  08B4                     _IOCB4	set	2228	;_IOCB4
   147  08B5                     _IOCB5	set	2229	;_IOCB5
   148  08B6                     _IOCB6	set	2230	;_IOCB6
   149  08B7                     _IOCB7	set	2231	;_IOCB7
   150  08DF                     _MC1OUT	set	2271	;_MC1OUT
   151  08DE                     _MC2OUT	set	2270	;_MC2OUT
   152  0CF2                     _PULSR	set	3314	;_PULSR
   153  0CF3                     _PULSS	set	3315	;_PULSS
   154  0CF6                     _SR0	set	3318	;_SR0
   155  0CF7                     _SR1	set	3319	;_SR1
   156  0CE8                     _STRA	set	3304	;_STRA
   157  0CE9                     _STRB	set	3305	;_STRB
   158  0CEA                     _STRC	set	3306	;_STRC
   159  0CEB                     _STRD	set	3307	;_STRD
   160  0CEC                     _STRSYNC	set	3308	;_STRSYNC
   161  08D9                     _T1GSS	set	2265	;_T1GSS
   162  08C4                     _VP6EN	set	2244	;_VP6EN
   163  08C0                     _VR0	set	2240	;_VR0
   164  08C1                     _VR1	set	2241	;_VR1
   165  08C2                     _VR2	set	2242	;_VR2
   166  08C3                     _VR3	set	2243	;_VR3
   167  08C5                     _VRR	set	2245	;_VRR
   168  08AC                     _WPUB4	set	2220	;_WPUB4
   169  08AD                     _WPUB5	set	2221	;_WPUB5
   170  08AE                     _WPUB6	set	2222	;_WPUB6
   171  08AF                     _WPUB7	set	2223	;_WPUB7
   172  0C62                     _WREN	set	3170	;_WREN
   173  000B                     _INTCON	set	11
   174  001B                     _MSCON	set	27
   175  000C                     _PIR1	set	12
   176  0005                     _PORTA	set	5
   177  0007                     _PORTC	set	7
   178  001F                     _T0CON0	set	31
   179  0012                     _T2CON0	set	18
   180  0001                     _TMR0	set	1
   181  0013                     _TMR2H	set	19
   182  0011                     _TMR2L	set	17
   183  0067                     _EEIF	set	103
   184  005F                     _GIE	set	95
   185  005C                     _INTE	set	92
   186  0059                     _INTF	set	89
   187  005B                     _PAIE	set	91
   188  0058                     _PAIF	set	88
   189  005E                     _PEIE	set	94
   190  0028                     _RA0	set	40
   191  002D                     _RA5	set	45
   192  002E                     _RA6	set	46
   193  002F                     _RA7	set	47
   194  0039                     _RC1	set	57
   195  003C                     _RC4	set	60
   196  003D                     _RC5	set	61
   197  005D                     _T0IE	set	93
   198  005A                     _T0IF	set	90
   199  00FB                     _T0ON	set	251
   200  0061                     _TMR2IF	set	97
   201  0092                     _TMR2ON	set	146
   202  009B                     _EEADR	set	155
   203  009C                     _EECON1	set	156
   204  009A                     _EEDAT	set	154
   205  0081                     _OPTION	set	129
   206  008F                     _OSCCON	set	143
   207  008C                     _PIE1	set	140
   208  0092                     _PR2H	set	146
   209  0091                     _PR2L	set	145
   210  0097                     _PSINKA	set	151
   211  009F                     _PSINKC	set	159
   212  0088                     _PSRCA	set	136
   213  0094                     _PSRCC	set	148
   214  0085                     _TRISA	set	133
   215  0087                     _TRISC	set	135
   216  0095                     _WPUA	set	149
   217  0093                     _WPUC	set	147
   218  047A                     _HTS	set	1146
   219  040E                     _INTEDG	set	1038
   220  04B6                     _IOCA6	set	1206
   221  04E0                     _RD	set	1248
   222  0461                     _TMR2IE	set	1121
   223  04E8                     _WR	set	1256
   224                           
   225                           	psect	cinit
   226  02D2                     start_initialization:	
   227                           
   228                           ; Clear objects allocated to COMMON
   229  02D2  01F9               	clrf	__pbssCOMMON& (0+127)
   230  02D3  01FA               	clrf	(__pbssCOMMON+1)& (0+127)
   231                           
   232                           ; Clear objects allocated to BANK0
   233  02D4  01A0               	clrf	__pbssBANK0& (0+127)
   234  02D5  01A1               	clrf	(__pbssBANK0+1)& (0+127)
   235  02D6  01A2               	clrf	(__pbssBANK0+2)& (0+127)
   236  02D7  01A3               	clrf	(__pbssBANK0+3)& (0+127)
   237  02D8  01A4               	clrf	(__pbssBANK0+4)& (0+127)
   238  02D9  01A5               	clrf	(__pbssBANK0+5)& (0+127)
   239  02DA  01A6               	clrf	(__pbssBANK0+6)& (0+127)
   240  02DB  01A7               	clrf	(__pbssBANK0+7)& (0+127)
   241  02DC  01A8               	clrf	(__pbssBANK0+8)& (0+127)
   242  02DD  01A9               	clrf	(__pbssBANK0+9)& (0+127)
   243  02DE  01AA               	clrf	(__pbssBANK0+10)& (0+127)
   244  02DF                     end_of_initialization:	
   245                           ;End of C runtime variable initialization code
   246                           
   247  02DF  0183               	clrf	3
   248  02E0  280B               	ljmp	_main	;jump to C main() function
   249                           
   250                           	psect	bssCOMMON
   251  0079                     __pbssCOMMON:	
   252  0079                     _timeTick:	
   253  0079                     	ds	2
   254                           
   255                           	psect	bssBANK0
   256  0020                     __pbssBANK0:	
   257  0020                     _cntTmp:	
   258  0020                     	ds	2
   259  0022                     _timeOut:	
   260  0022                     	ds	2
   261  0024                     _RegStatus:	
   262  0024                     	ds	1
   263  0025                     _cntCyc:	
   264  0025                     	ds	1
   265  0026                     _cntOff:	
   266  0026                     	ds	1
   267  0027                     _lostDetect:	
   268  0027                     	ds	1
   269  0028                     _mode_chek:	
   270  0028                     	ds	1
   271  0029                     _mtOldState:	
   272  0029                     	ds	1
   273  002A                     _mtState:	
   274  002A                     	ds	1
   275                           
   276                           	psect	cstackCOMMON
   277  0070                     __pcstackCOMMON:	
   278  0070                     ?_sys_init:	
   279  0070                     ?_gpio_init:	
   280                           ; 0 bytes @ 0x0
   281                           
   282  0070                     ?_timer_init:	
   283                           ; 0 bytes @ 0x0
   284                           
   285  0070                     ?_int_init:	
   286                           ; 0 bytes @ 0x0
   287                           
   288  0070                     ?_ISR:	
   289                           ; 0 bytes @ 0x0
   290                           
   291  0070                     ??_ISR:	
   292                           ; 0 bytes @ 0x0
   293                           
   294  0070                     ?_beepOff:	
   295                           ; 0 bytes @ 0x0
   296                           
   297  0070                     ?_beepOn:	
   298                           ; 0 bytes @ 0x0
   299                           
   300  0070                     ?_main:	
   301                           ; 0 bytes @ 0x0
   302                           
   303  0070                     ?_READ_EEPROM:	
   304                           ; 0 bytes @ 0x0
   305                           
   306                           
   307                           ; 1 bytes @ 0x0
   308  0070                     	ds	2
   309  0072                     ??_sys_init:	
   310  0072                     ??_gpio_init:	
   311                           ; 0 bytes @ 0x2
   312                           
   313  0072                     ??_timer_init:	
   314                           ; 0 bytes @ 0x2
   315                           
   316  0072                     ??_int_init:	
   317                           ; 0 bytes @ 0x2
   318                           
   319  0072                     ?_delay_x10ms:	
   320                           ; 0 bytes @ 0x2
   321                           
   322  0072                     ??_beepOff:	
   323                           ; 0 bytes @ 0x2
   324                           
   325  0072                     ??_beepOn:	
   326                           ; 0 bytes @ 0x2
   327                           
   328  0072                     ??_READ_EEPROM:	
   329                           ; 0 bytes @ 0x2
   330                           
   331  0072                     ?_WRITE_EEPROM:	
   332                           ; 0 bytes @ 0x2
   333                           
   334  0072                     ?_setState:	
   335                           ; 0 bytes @ 0x2
   336                           
   337  0072                     READ_EEPROM@EEAddr:	
   338                           ; 0 bytes @ 0x2
   339                           
   340  0072                     WRITE_EEPROM@EEData:	
   341                           ; 1 bytes @ 0x2
   342                           
   343  0072                     delay_x10ms@t:	
   344                           ; 1 bytes @ 0x2
   345                           
   346  0072                     setState@_tOut:	
   347                           ; 2 bytes @ 0x2
   348                           
   349                           
   350                           ; 2 bytes @ 0x2
   351  0072                     	ds	1
   352  0073                     ??_WRITE_EEPROM:	
   353  0073                     READ_EEPROM@ReEepromData:	
   354                           ; 0 bytes @ 0x3
   355                           
   356  0073                     WRITE_EEPROM@EEAddr:	
   357                           ; 1 bytes @ 0x3
   358                           
   359                           
   360                           ; 1 bytes @ 0x3
   361  0073                     	ds	1
   362  0074                     ??_delay_x10ms:	
   363  0074                     ??_setState:	
   364                           ; 0 bytes @ 0x4
   365                           
   366  0074                     setState@stt:	
   367                           ; 0 bytes @ 0x4
   368                           
   369  0074                     delay_x10ms@set:	
   370                           ; 1 bytes @ 0x4
   371                           
   372                           
   373                           ; 2 bytes @ 0x4
   374  0074                     	ds	2
   375  0076                     ?_beep:	
   376  0076                     beep@rep:	
   377                           ; 0 bytes @ 0x6
   378                           
   379                           
   380                           ; 1 bytes @ 0x6
   381  0076                     	ds	1
   382  0077                     ??_beep:	
   383  0077                     beep@delay:	
   384                           ; 0 bytes @ 0x7
   385                           
   386                           
   387                           ; 1 bytes @ 0x7
   388  0077                     	ds	1
   389  0078                     main@reAlertOn:	
   390                           
   391                           ; 1 bytes @ 0x8
   392  0078                     	ds	1
   393                           
   394                           	psect	cstackBANK0
   395  002B                     __pcstackBANK0:	
   396  002B                     ??_main:	
   397                           
   398                           ; 0 bytes @ 0x0
   399  002B                     	ds	3
   400                           
   401                           	psect	maintext
   402  000B                     __pmaintext:	
   403 ;;Data sizes: Strings 0, constant 0, data 0, bss 13, persistent 0 stack 0
   404 ;;Auto spaces:   Size  Autos    Used
   405 ;; COMMON          14      9      11
   406 ;; BANK0           80      3      14
   407 ;; BANK1           32      0       0
   408 ;;
   409 ;; Pointer list with targets:
   410 ;;
   411 ;; Critical Paths under _main in COMMON
   412 ;;
   413 ;;   _main->_beep
   414 ;;   _beep->_delay_x10ms
   415 ;;
   416 ;; Critical Paths under _ISR in COMMON
   417 ;;
   418 ;;   None.
   419 ;;
   420 ;; Critical Paths under _main in BANK0
   421 ;;
   422 ;;   None.
   423 ;;
   424 ;; Critical Paths under _ISR in BANK0
   425 ;;
   426 ;;   None.
   427 ;;
   428 ;; Critical Paths under _main in BANK1
   429 ;;
   430 ;;   None.
   431 ;;
   432 ;; Critical Paths under _ISR in BANK1
   433 ;;
   434 ;;   None.
   435 ;;
   436 ;;Main: autosize = 0, tempsize = 3, incstack = 0, save=0
   437 ;;
   438 ;;
   439 ;;Call Graph Tables:
   440 ;;
   441 ;; ---------------------------------------------------------------------------------
   442 ;; (Depth) Function   	        Calls       Base Space   Used Autos Params    Refs
   443 ;; ---------------------------------------------------------------------------------
   444 ;; (0) _main                                                 4     4      0     380
   445 ;;                                              8 COMMON     1     1      0
   446 ;;                                              0 BANK0      3     3      0
   447 ;;                           _sys_init
   448 ;;                          _gpio_init
   449 ;;                         _timer_init
   450 ;;                           _int_init
   451 ;;                           _setState
   452 ;;                       _WRITE_EEPROM
   453 ;;                        _delay_x10ms
   454 ;;                        _READ_EEPROM
   455 ;;                             _beepOn
   456 ;;                               _beep
   457 ;;                            _beepOff
   458 ;; ---------------------------------------------------------------------------------
   459 ;; (1) _sys_init                                             0     0      0       0
   460 ;; ---------------------------------------------------------------------------------
   461 ;; (1) _beep                                                 2     1      1      90
   462 ;;                                              6 COMMON     2     1      1
   463 ;;                        _delay_x10ms
   464 ;; ---------------------------------------------------------------------------------
   465 ;; (1) _int_init                                             1     1      0       0
   466 ;; ---------------------------------------------------------------------------------
   467 ;; (1) _timer_init                                           0     0      0       0
   468 ;; ---------------------------------------------------------------------------------
   469 ;; (1) _gpio_init                                            0     0      0       0
   470 ;; ---------------------------------------------------------------------------------
   471 ;; (1) _setState                                             3     1      2      44
   472 ;;                                              2 COMMON     3     1      2
   473 ;; ---------------------------------------------------------------------------------
   474 ;; (1) _WRITE_EEPROM                                         2     1      1      44
   475 ;;                                              2 COMMON     2     1      1
   476 ;; ---------------------------------------------------------------------------------
   477 ;; (1) _READ_EEPROM                                          2     2      0      45
   478 ;;                                              2 COMMON     2     2      0
   479 ;; ---------------------------------------------------------------------------------
   480 ;; (1) _beepOn                                               0     0      0       0
   481 ;; ---------------------------------------------------------------------------------
   482 ;; (1) _beepOff                                              0     0      0       0
   483 ;; ---------------------------------------------------------------------------------
   484 ;; (2) _delay_x10ms                                          4     2      2      46
   485 ;;                                              2 COMMON     4     2      2
   486 ;; ---------------------------------------------------------------------------------
   487 ;; Estimated maximum stack depth 2
   488 ;; ---------------------------------------------------------------------------------
   489 ;; (Depth) Function   	        Calls       Base Space   Used Autos Params    Refs
   490 ;; ---------------------------------------------------------------------------------
   491 ;; (3) _ISR                                                  3     3      0       0
   492 ;;                                              0 COMMON     2     2      0
   493 ;; ---------------------------------------------------------------------------------
   494 ;; Estimated maximum stack depth 3
   495 ;; ---------------------------------------------------------------------------------
   496 ;; Call Graph Graphs:
   497 ;; _main (ROOT)
   498 ;;   _sys_init
   499 ;;   _gpio_init
   500 ;;   _timer_init
   501 ;;   _int_init
   502 ;;   _setState
   503 ;;   _WRITE_EEPROM
   504 ;;   _delay_x10ms
   505 ;;   _READ_EEPROM
   506 ;;   _beepOn
   507 ;;   _beep
   508 ;;     _delay_x10ms
   509 ;;   _beepOff
   510 ;;
   511 ;; _ISR (ROOT)
   512 ;;
   513 ;; Address spaces:
   514 ;;Name               Size   Autos  Total    Cost      Usage
   515 ;;BITCOMMON            E      0       0       0        0.0%
   516 ;;EEDATA             100      0       0       0        0.0%
   517 ;;NULL                 0      0       0       0        0.0%
   518 ;;CODE                 0      0       0       0        0.0%
   519 ;;COMMON               E      9       B       1       78.6%
   520 ;;BITSFR0              0      0       0       1        0.0%
   521 ;;SFR0                 0      0       0       1        0.0%
   522 ;;BITSFR1              0      0       0       2        0.0%
   523 ;;SFR1                 0      0       0       2        0.0%
   524 ;;STACK                0      0       2       2        0.0%
   525 ;;BITBANK0            50      0       0       3        0.0%
   526 ;;BANK0               50      3       E       4       17.5%
   527 ;;BANK1               20      0       0       5        0.0%
   528 ;;ABS                  0      0      19       6        0.0%
   529 ;;BITBANK1            20      0       0       7        0.0%
   530 ;;DATA                 0      0      1B       8        0.0%
   531                           
   532                           
   533 ;; *************** function _main *****************
   534 ;; Defined at:
   535 ;;		line 216 in file "smartkey.C"
   536 ;; Parameters:    Size  Location     Type
   537 ;;		None
   538 ;; Auto vars:     Size  Location     Type
   539 ;;  reAlertOn       1    8[COMMON] unsigned char 
   540 ;; Return value:  Size  Location     Type
   541 ;;		None               void
   542 ;; Registers used:
   543 ;;		wreg, fsr0l, fsr0h, status,2, status,0, pclath, cstack
   544 ;; Tracked objects:
   545 ;;		On entry : 17F/0
   546 ;;		On exit  : 20/0
   547 ;;		Unchanged: 0/0
   548 ;; Data sizes:     COMMON   BANK0   BANK1
   549 ;;      Params:         0       0       0
   550 ;;      Locals:         1       0       0
   551 ;;      Temps:          0       3       0
   552 ;;      Totals:         1       3       0
   553 ;;Total ram usage:        4 bytes
   554 ;; Hardware stack levels required when called:    3
   555 ;; This function calls:
   556 ;;		_sys_init
   557 ;;		_gpio_init
   558 ;;		_timer_init
   559 ;;		_int_init
   560 ;;		_setState
   561 ;;		_WRITE_EEPROM
   562 ;;		_delay_x10ms
   563 ;;		_READ_EEPROM
   564 ;;		_beepOn
   565 ;;		_beep
   566 ;;		_beepOff
   567 ;; This function is called by:
   568 ;;		Startup code after reset
   569 ;; This function uses a non-reentrant model
   570 ;;
   571  000B                     _main:	
   572                           
   573                           ;smartkey.C: 219: unsigned char reAlertOn=0;
   574                           
   575                           ; Regs used in _main: [wreg-fsr0h+status,2+status,0+pclath+cstack]
   576  000B  01F8               	clrf	main@reAlertOn
   577  000C  0064               	clrwdt	;#
   578                           
   579                           ;smartkey.C: 224: sys_init();
   580  000D  22EE               	fcall	_sys_init
   581                           
   582                           ;smartkey.C: 225: gpio_init();
   583  000E  2282               	fcall	_gpio_init
   584                           
   585                           ;smartkey.C: 227: timer_init();
   586  000F  22C2               	fcall	_timer_init
   587                           
   588                           ;smartkey.C: 228: int_init();
   589  0010  224F               	fcall	_int_init
   590                           
   591                           ;smartkey.C: 232: _delay((unsigned long)((100)*(4000000/4000.0)));
   592  0011  3082               	movlw	130
   593  0012  00AC               	movwf	??_main+1
   594  0013  30DD               	movlw	221
   595  0014  00AB               	movwf	??_main
   596  0015                     u1487:	
   597  0015  0BAB               	decfsz	??_main,f
   598  0016  2815               	goto	u1487
   599  0017  0BAC               	decfsz	??_main+1,f
   600  0018  2815               	goto	u1487
   601  0019  281A               	nop2
   602  001A  3082               	movlw	130
   603                           
   604                           ;smartkey.C: 234: RA7 =1;
   605  001B  1283               	bcf	3,5	;RP0=0, select bank0
   606  001C  1785               	bsf	5,7
   607                           
   608                           ;smartkey.C: 235: _delay((unsigned long)((100)*(4000000/4000.0)));
   609  001D  00AC               	movwf	??_main+1
   610  001E  30DD               	movlw	221
   611  001F  00AB               	movwf	??_main
   612  0020                     u1497:	
   613  0020  0BAB               	decfsz	??_main,f
   614  0021  2820               	goto	u1497
   615  0022  0BAC               	decfsz	??_main+1,f
   616  0023  2820               	goto	u1497
   617  0024  2825               	nop2
   618  0025  3000               	movlw	0
   619                           
   620                           ;smartkey.C: 237: PAIE = 1;
   621  0026  158B               	bsf	11,3
   622                           
   623                           ;smartkey.C: 239: RegStatus = 0;
   624  0027  1283               	bcf	3,5	;RP0=0, select bank0
   625  0028  01A4               	clrf	_RegStatus
   626  0029  01F2               	clrf	?_setState
   627  002A  01F3               	clrf	?_setState+1
   628  002B  22E1               	fcall	_setState
   629                           
   630                           ;smartkey.C: 247: WRITE_EEPROM(0xFF,0xAA);
   631  002C  30AA               	movlw	170
   632  002D  00F2               	movwf	?_WRITE_EEPROM
   633  002E  30FF               	movlw	255
   634  002F  226A               	fcall	_WRITE_EEPROM
   635                           
   636                           ;smartkey.C: 248: WRITE_EEPROM(0xFF,0xAA);
   637  0030  30AA               	movlw	170
   638  0031  00F2               	movwf	?_WRITE_EEPROM
   639  0032  30FF               	movlw	255
   640  0033  226A               	fcall	_WRITE_EEPROM
   641                           
   642                           ;smartkey.C: 251: delay_x10ms(1);
   643  0034  01F2               	clrf	?_delay_x10ms
   644  0035  0AF2               	incf	?_delay_x10ms,f
   645  0036  01F3               	clrf	?_delay_x10ms+1
   646  0037  22AF               	fcall	_delay_x10ms
   647                           
   648                           ;smartkey.C: 253: if(READ_EEPROM(0x08)==0xff) {WRITE_EEPROM(0x08,0);_delay((unsigned lon
      +                          g)((2)*(4000000/4000.0)));}
   649  0038  3008               	movlw	8
   650  0039  22F6               	fcall	_READ_EEPROM
   651  003A  3AFF               	xorlw	255
   652  003B  3008               	movlw	8
   653  003C  1D03               	skipz
   654  003D  284B               	goto	L3
   655  003E  01F2               	clrf	?_WRITE_EEPROM
   656  003F  226A               	fcall	_WRITE_EEPROM
   657  0040  3003               	movlw	3
   658  0041  1283               	bcf	3,5	;RP0=0, select bank0
   659  0042  00AC               	movwf	??_main+1
   660  0043  3097               	movlw	151
   661  0044  00AB               	movwf	??_main
   662  0045                     u1507:	
   663  0045  0BAB               	decfsz	??_main,f
   664  0046  2845               	goto	u1507
   665  0047  0BAC               	decfsz	??_main+1,f
   666  0048  2845               	goto	u1507
   667  0049  284A               	nop2
   668                           
   669                           ;smartkey.C: 255: if(READ_EEPROM(0x08)==0xcc){
   670  004A  3008               	movlw	8
   671  004B                     L3:	
   672  004B  22F6               	fcall	_READ_EEPROM
   673  004C  3ACC               	xorlw	204
   674  004D  1D03               	skipz
   675  004E  2866               	goto	l4538
   676  004F  3008               	movlw	8
   677                           
   678                           ;smartkey.C: 256: RegStatus &=~(0x20);
   679  0050  1283               	bcf	3,5	;RP0=0, select bank0
   680  0051  12A4               	bcf	_RegStatus,5
   681                           
   682                           ;smartkey.C: 257: setState(3,1800);
   683  0052  00F2               	movwf	?_setState
   684  0053  3007               	movlw	7
   685  0054  00F3               	movwf	?_setState+1
   686  0055  3003               	movlw	3
   687  0056  22E1               	fcall	_setState
   688                           
   689                           ;smartkey.C: 258: mtOldState = 1;
   690  0057  01A9               	clrf	_mtOldState
   691  0058  0AA9               	incf	_mtOldState,f
   692                           
   693                           ;smartkey.C: 259: cntTmp = timeTick+50;
   694  0059  087A               	movf	_timeTick+1,w
   695  005A  00A1               	movwf	_cntTmp+1
   696  005B  0879               	movf	_timeTick,w
   697  005C  00A0               	movwf	_cntTmp
   698  005D  3032               	movlw	50
   699  005E  07A0               	addwf	_cntTmp,f
   700  005F  1803               	skipnc
   701  0060  0AA1               	incf	_cntTmp+1,f
   702                           
   703                           ;smartkey.C: 260: PR2L =12;
   704  0061  300C               	movlw	12
   705  0062  1683               	bsf	3,5	;RP0=1, select bank1
   706  0063  0091               	movwf	17	;volatile
   707                           
   708                           ;smartkey.C: 261: beepOn();
   709  0064  2305               	fcall	_beepOn
   710                           
   711                           ;smartkey.C: 262: } else {
   712  0065  286D               	goto	l4542
   713  0066                     l4538:	
   714                           
   715                           ;smartkey.C: 263: setState(2,400);
   716  0066  3090               	movlw	144
   717  0067  00F2               	movwf	?_setState
   718  0068  3001               	movlw	1
   719  0069  00F3               	movwf	?_setState+1
   720  006A  3002               	movlw	2
   721  006B  22E1               	fcall	_setState
   722                           
   723                           ;smartkey.C: 265: mtOldState = 0;
   724  006C  01A9               	clrf	_mtOldState
   725  006D                     l4542:	
   726                           
   727                           ;smartkey.C: 309: RA0 =RA6;
   728  006D  1283               	bcf	3,5	;RP0=0, select bank0
   729  006E  1F05               	btfss	5,6
   730  006F  2873               	goto	u1170
   731  0070  1283               	bcf	3,5	;RP0=0, select bank0
   732  0071  1405               	bsf	5,0
   733  0072  2875               	goto	l4544
   734  0073                     u1170:	
   735  0073  1283               	bcf	3,5	;RP0=0, select bank0
   736  0074  1005               	bcf	5,0
   737  0075                     l4544:	
   738                           
   739                           ;smartkey.C: 312: if(mode_chek == 0)
   740  0075  08A8               	movf	_mode_chek,f
   741  0076  1903               	btfsc	3,2
   742                           
   743                           ;smartkey.C: 313: {
   744                           ;smartkey.C: 315: if(RegStatus & 0x80)
   745  0077  1FA4               	btfss	_RegStatus,7
   746  0078  2928               	goto	l4636
   747                           
   748                           ;smartkey.C: 316: {
   749                           ;smartkey.C: 317: PAIE = 0;
   750  0079  118B               	bcf	11,3
   751                           
   752                           ;smartkey.C: 320: RegStatus &= (~0x80);
   753  007A  13A4               	bcf	_RegStatus,7
   754                           
   755                           ;smartkey.C: 332: {
   756                           ;smartkey.C: 334: if ((RegStatus & 0x40) !=0){
   757  007B  1B24               	btfsc	_RegStatus,6
   758  007C  28D8               	goto	l4600
   759  007D  291F               	goto	l4634
   760  007E                     l4552:	
   761  007E  2908               	goto	L2
   762  007F                     l4554:	
   763                           ;smartkey.C: 349: break;
   764                           
   765                           ;smartkey.C: 348: timeTick =0;
   766                           
   767                           ;smartkey.C: 347: lostDetect =0;
   768                           
   769                           
   770                           ;smartkey.C: 352: if(timeTick >30){
   771  007F  3000               	movlw	0
   772  0080  027A               	subwf	_timeTick+1,w
   773  0081  301F               	movlw	31
   774  0082  1903               	skipnz
   775  0083  0279               	subwf	_timeTick,w
   776  0084  1C03               	skipc
   777  0085  2927               	goto	l897
   778  0086  3008               	movlw	8
   779                           
   780                           ;smartkey.C: 353: timeTick =0;
   781  0087  01F9               	clrf	_timeTick
   782  0088  01FA               	clrf	_timeTick+1
   783                           
   784                           ;smartkey.C: 355: if(READ_EEPROM(0x08)==0xcc) WRITE_EEPROM(0x08,0);
   785  0089  22F6               	fcall	_READ_EEPROM
   786  008A  3ACC               	xorlw	204
   787  008B  1D03               	skipz
   788  008C  2890               	goto	l4562
   789  008D  3008               	movlw	8
   790  008E  01F2               	clrf	?_WRITE_EEPROM
   791  008F  226A               	fcall	_WRITE_EEPROM
   792  0090                     l4562:	
   793                           
   794                           ;smartkey.C: 357: if((mtOldState == 3)){
   795  0090  1283               	bcf	3,5	;RP0=0, select bank0
   796  0091  0829               	movf	_mtOldState,w
   797  0092  3A03               	xorlw	3
   798  0093  1D03               	skipz
   799  0094  28A1               	goto	l4572
   800                           
   801                           ;smartkey.C: 358: beepOn();TMR2ON = 0; beep(10,1);
   802  0095  2305               	fcall	_beepOn
   803  0096  300A               	movlw	10
   804  0097  1283               	bcf	3,5	;RP0=0, select bank0
   805  0098  1112               	bcf	18,2
   806  0099  01F6               	clrf	?_beep
   807  009A  0AF6               	incf	?_beep,f
   808  009B  2299               	fcall	_beep
   809  009C                     L1:	
   810                           
   811                           ;smartkey.C: 359: if(reAlertOn)reAlertOn =0;
   812  009C  0878               	movf	main@reAlertOn,w
   813  009D  1903               	btfsc	3,2
   814  009E  2927               	goto	l897
   815  009F  01F8               	clrf	main@reAlertOn
   816  00A0  2927               	goto	l897
   817  00A1                     l4572:	
   818                           
   819                           ;smartkey.C: 361: else if((mtOldState == 0)||(mtOldState == 4)){
   820  00A1  0829               	movf	_mtOldState,w
   821  00A2  1903               	btfsc	3,2
   822  00A3  28A8               	goto	l888
   823  00A4  0829               	movf	_mtOldState,w
   824  00A5  3A04               	xorlw	4
   825  00A6  1D03               	skipz
   826  00A7  28B4               	goto	l4578
   827  00A8                     l888:	
   828  00A8  30AC               	movlw	172
   829                           
   830                           ;smartkey.C: 362: RegStatus |=(0x20);
   831  00A9  16A4               	bsf	_RegStatus,5
   832                           
   833                           ;smartkey.C: 363: setState(1,3500);
   834  00AA  00F2               	movwf	?_setState
   835  00AB  300D               	movlw	13
   836  00AC  00F3               	movwf	?_setState+1
   837  00AD  3001               	movlw	1
   838  00AE  22E1               	fcall	_setState
   839  00AF  300A               	movlw	10
   840                           
   841                           ;smartkey.C: 364: beep(10,1);
   842  00B0  01F6               	clrf	?_beep
   843  00B1  0AF6               	incf	?_beep,f
   844  00B2  2299               	fcall	_beep
   845                           
   846                           ;smartkey.C: 365: }
   847  00B3  2927               	goto	l897
   848  00B4                     l4578:	
   849                           
   850                           ;smartkey.C: 366: else if((mtOldState == 1)){
   851  00B4  0B29               	decfsz	_mtOldState,w
   852  00B5  2927               	goto	l897
   853  00B6  289C               	goto	L1
   854  00B7                     l4584:	
   855                           ;smartkey.C: 369: }
   856                           ;smartkey.C: 370: }
   857                           ;smartkey.C: 371: break;
   858                           
   859                           ;smartkey.C: 368: if(reAlertOn)reAlertOn =0;
   860                           
   861                           
   862                           ;smartkey.C: 374: if(timeTick > 200)
   863  00B7  3000               	movlw	0
   864  00B8  027A               	subwf	_timeTick+1,w
   865  00B9  30C9               	movlw	201
   866  00BA  1903               	skipnz
   867  00BB  0279               	subwf	_timeTick,w
   868  00BC  1C03               	skipc
   869  00BD  2927               	goto	l897
   870                           
   871                           ;smartkey.C: 375: {
   872                           ;smartkey.C: 376: beepOff();
   873  00BE  230A               	fcall	_beepOff
   874                           
   875                           ;smartkey.C: 377: if(READ_EEPROM(0x08)==0xcc) WRITE_EEPROM(0x08,0);
   876  00BF  3008               	movlw	8
   877  00C0  22F6               	fcall	_READ_EEPROM
   878  00C1  3ACC               	xorlw	204
   879  00C2  1D03               	skipz
   880  00C3  28C7               	goto	l4592
   881  00C4  3008               	movlw	8
   882  00C5  01F2               	clrf	?_WRITE_EEPROM
   883  00C6  226A               	fcall	_WRITE_EEPROM
   884  00C7                     l4592:	
   885  00C7  30AC               	movlw	172
   886                           
   887                           ;smartkey.C: 378: RegStatus |=(0x20);
   888  00C8  1283               	bcf	3,5	;RP0=0, select bank0
   889  00C9  16A4               	bsf	_RegStatus,5
   890                           
   891                           ;smartkey.C: 379: setState(1,3500);
   892  00CA  00F2               	movwf	?_setState
   893  00CB  300D               	movlw	13
   894  00CC  00F3               	movwf	?_setState+1
   895  00CD  3001               	movlw	1
   896  00CE  22E1               	fcall	_setState
   897  00CF  2927               	goto	l897
   898  00D0                     l4594:	
   899                           
   900                           ;smartkey.C: 385: beepOff();
   901  00D0  230A               	fcall	_beepOff
   902                           
   903                           ;smartkey.C: 386: setState(2,300);
   904  00D1  302C               	movlw	44
   905  00D2  00F2               	movwf	?_setState
   906  00D3  3001               	movlw	1
   907  00D4  00F3               	movwf	?_setState+1
   908  00D5  3002               	movlw	2
   909  00D6  22E1               	fcall	_setState
   910                           
   911                           ;smartkey.C: 387: break;
   912  00D7  2927               	goto	l897
   913  00D8                     l4600:	
   914  00D8  082A               	movf	_mtState,w
   915                           
   916                           ; Switch size 1, requested type "space"
   917                           ; Number of cases is 5, Range of values is 0 to 4
   918                           ; switch strategies available:
   919                           ; Name         Instructions Cycles
   920                           ; direct_byte           11     6 (fixed)
   921                           ; simple_byte           16     9 (average)
   922                           ; jumptable            260     6 (fixed)
   923                           ; rangetable             9     6 (fixed)
   924                           ; spacedrange           16     9 (fixed)
   925                           ; locatedrange           5     3 (fixed)
   926                           ;	Chosen strategy is direct_byte
   927  00D9  0084               	movwf	4
   928  00DA  3005               	movlw	5
   929  00DB  0204               	subwf	4,w
   930  00DC  1803               	skipnc
   931  00DD  2927               	goto	l897
   932  00DE  3003               	movlw	high S4768
   933  00DF  008A               	movwf	10
   934  00E0  3000               	movlw	low S4768
   935  00E1  0704               	addwf	4,w
   936  00E2  0082               	movwf	2
   937  00E3                     l4602:	
   938                           
   939                           ;smartkey.C: 411: {
   940                           ;smartkey.C: 413: if(lostDetect==1 && timeTick< 1500)
   941  00E3  0B27               	decfsz	_lostDetect,w
   942  00E4  290A               	goto	l900
   943  00E5  3005               	movlw	5
   944  00E6  027A               	subwf	_timeTick+1,w
   945  00E7  30DC               	movlw	220
   946  00E8  1903               	skipnz
   947  00E9  0279               	subwf	_timeTick,w
   948  00EA  1803               	skipnc
   949  00EB  290A               	goto	l900
   950                           
   951                           ;smartkey.C: 414: {
   952                           ;smartkey.C: 415: if(READ_EEPROM(0x08)==0x00) WRITE_EEPROM(0x08,0xcc);
   953  00EC  3008               	movlw	8
   954  00ED  22F6               	fcall	_READ_EEPROM
   955  00EE  3800               	iorlw	0
   956  00EF  1D03               	skipz
   957  00F0  28F5               	goto	l901
   958  00F1  30CC               	movlw	204
   959  00F2  00F2               	movwf	?_WRITE_EEPROM
   960  00F3  3008               	movlw	8
   961  00F4  226A               	fcall	_WRITE_EEPROM
   962  00F5                     l901:	
   963                           
   964                           ;smartkey.C: 417: setState(3,1800);
   965  00F5  3008               	movlw	8
   966  00F6  00F2               	movwf	?_setState
   967  00F7  3007               	movlw	7
   968  00F8  00F3               	movwf	?_setState+1
   969  00F9  3003               	movlw	3
   970  00FA  22E1               	fcall	_setState
   971                           
   972                           ;smartkey.C: 418: cntTmp = timeTick+40;
   973  00FB  087A               	movf	_timeTick+1,w
   974  00FC  00A1               	movwf	_cntTmp+1
   975  00FD  0879               	movf	_timeTick,w
   976  00FE  00A0               	movwf	_cntTmp
   977  00FF  3028               	movlw	40
   978  0100  07A0               	addwf	_cntTmp,f
   979  0101  1803               	skipnc
   980  0102  0AA1               	incf	_cntTmp+1,f
   981                           
   982                           ;smartkey.C: 419: PR2L =11;
   983  0103  300B               	movlw	11
   984  0104  1683               	bsf	3,5	;RP0=1, select bank1
   985  0105  0091               	movwf	17	;volatile
   986                           
   987                           ;smartkey.C: 420: beepOn();
   988  0106  2305               	fcall	_beepOn
   989                           
   990                           ;smartkey.C: 421: lostDetect =0;
   991  0107  1283               	bcf	3,5	;RP0=0, select bank0
   992  0108                     L2:	
   993  0108  01A7               	clrf	_lostDetect
   994                           
   995                           ;smartkey.C: 422: }
   996  0109  290C               	goto	l4618
   997  010A                     l900:	
   998                           
   999                           ;smartkey.C: 423: else {
  1000                           ;smartkey.C: 424: lostDetect =1;
  1001  010A  01A7               	clrf	_lostDetect
  1002  010B  0AA7               	incf	_lostDetect,f
  1003  010C                     l4618:	
  1004                           
  1005                           ;smartkey.C: 427: }
  1006                           ;smartkey.C: 428: timeTick =0;
  1007  010C  01F9               	clrf	_timeTick
  1008  010D  01FA               	clrf	_timeTick+1
  1009                           
  1010                           ;smartkey.C: 429: }
  1011                           ;smartkey.C: 430: break;
  1012  010E  2927               	goto	l897
  1013  010F                     l4620:	
  1014                           
  1015                           ;smartkey.C: 433: {
  1016                           ;smartkey.C: 434: timeTick =0;
  1017  010F  01F9               	clrf	_timeTick
  1018  0110  01FA               	clrf	_timeTick+1
  1019                           
  1020                           ;smartkey.C: 435: beepOn();TMR2ON = 0;
  1021  0111  2305               	fcall	_beepOn
  1022  0112  3002               	movlw	2
  1023  0113  1283               	bcf	3,5	;RP0=0, select bank0
  1024  0114  1112               	bcf	18,2
  1025                           
  1026                           ;smartkey.C: 436: beep(10,2);
  1027  0115  00F6               	movwf	?_beep
  1028  0116  300A               	movlw	10
  1029  0117  2299               	fcall	_beep
  1030                           
  1031                           ;smartkey.C: 437: if(mtOldState == 3){reAlertOn =1;}
  1032  0118  0829               	movf	_mtOldState,w
  1033  0119  3A03               	xorlw	3
  1034  011A  1D03               	skipz
  1035  011B  2927               	goto	l897
  1036  011C  01F8               	clrf	main@reAlertOn
  1037  011D  0AF8               	incf	main@reAlertOn,f
  1038  011E  2927               	goto	l897
  1039  011F                     l4634:	
  1040  011F  082A               	movf	_mtState,w
  1041                           
  1042                           ; Switch size 1, requested type "space"
  1043                           ; Number of cases is 2, Range of values is 1 to 2
  1044                           ; switch strategies available:
  1045                           ; Name         Instructions Cycles
  1046                           ; simple_byte            7     4 (average)
  1047                           ; direct_byte           11     9 (fixed)
  1048                           ; jumptable            263     9 (fixed)
  1049                           ;	Chosen strategy is simple_byte
  1050  0120  3A01               	xorlw	1	; case 1
  1051  0121  1903               	skipnz
  1052  0122  28E3               	goto	l4602
  1053  0123  3A03               	xorlw	3	; case 2
  1054  0124  1903               	skipnz
  1055  0125  290F               	goto	l4620
  1056  0126  2927               	goto	l897
  1057  0127                     l897:	
  1058                           
  1059                           ;smartkey.C: 441: }
  1060                           ;smartkey.C: 443: }
  1061                           ;smartkey.C: 445: PAIE = 1;
  1062  0127  158B               	bsf	11,3
  1063  0128                     l4636:	
  1064                           
  1065                           ;smartkey.C: 446: }
  1066                           ;smartkey.C: 448: }
  1067                           ;smartkey.C: 452: {
  1068                           ;smartkey.C: 453: if((timeOut!=0)&&( timeTick >timeOut)){
  1069  0128  0823               	movf	_timeOut+1,w
  1070  0129  0422               	iorwf	_timeOut,w
  1071  012A  1903               	skipnz
  1072  012B  299A               	goto	l906
  1073  012C  087A               	movf	_timeTick+1,w
  1074  012D  0223               	subwf	_timeOut+1,w
  1075  012E  1D03               	skipz
  1076  012F  2932               	goto	u1375
  1077  0130  0879               	movf	_timeTick,w
  1078  0131  0222               	subwf	_timeOut,w
  1079  0132                     u1375:	
  1080  0132  1C03               	btfss	3,0
  1081  0133  298C               	goto	l4694
  1082  0134  299A               	goto	l906
  1083  0135                     l4642:	
  1084                           
  1085                           ;smartkey.C: 464: beepOff();
  1086  0135  230A               	fcall	_beepOff
  1087  0136  302C               	movlw	44
  1088                           
  1089                           ;smartkey.C: 465: RegStatus &=(~0x20);
  1090  0137  1283               	bcf	3,5	;RP0=0, select bank0
  1091  0138  12A4               	bcf	_RegStatus,5
  1092                           
  1093                           ;smartkey.C: 466: setState(2,300);
  1094  0139  00F2               	movwf	?_setState
  1095  013A  3001               	movlw	1
  1096  013B  00F3               	movwf	?_setState+1
  1097  013C  3002               	movlw	2
  1098  013D  22E1               	fcall	_setState
  1099                           
  1100                           ;smartkey.C: 467: break;
  1101  013E  299A               	goto	l906
  1102  013F                     l4648:	
  1103                           
  1104                           ;smartkey.C: 469: beepOff();
  1105  013F  230A               	fcall	_beepOff
  1106                           
  1107                           ;smartkey.C: 470: delay_x10ms(20);
  1108  0140  3014               	movlw	20
  1109  0141  00F2               	movwf	?_delay_x10ms
  1110  0142  01F3               	clrf	?_delay_x10ms+1
  1111  0143  22AF               	fcall	_delay_x10ms
  1112                           
  1113                           ;smartkey.C: 471: beepOn();TMR2ON = 0;reAlertOn =0;
  1114  0144  2305               	fcall	_beepOn
  1115  0145  301E               	movlw	30
  1116  0146  1283               	bcf	3,5	;RP0=0, select bank0
  1117  0147  1112               	bcf	18,2
  1118  0148  01F8               	clrf	main@reAlertOn
  1119  0149  01F6               	clrf	?_beep
  1120  014A  0AF6               	incf	?_beep,f
  1121  014B  2299               	fcall	_beep
  1122  014C  3000               	movlw	0
  1123                           
  1124                           ;smartkey.C: 473: setState(0,0);
  1125  014D  01F2               	clrf	?_setState
  1126  014E  01F3               	clrf	?_setState+1
  1127  014F  22E1               	fcall	_setState
  1128                           
  1129                           ;smartkey.C: 474: break;
  1130  0150  299A               	goto	l906
  1131  0151                     l4662:	
  1132                           
  1133                           ;smartkey.C: 477: if(READ_EEPROM(0x08)==0xcc) WRITE_EEPROM(0x08,0);
  1134  0151  3008               	movlw	8
  1135  0152  22F6               	fcall	_READ_EEPROM
  1136  0153  3ACC               	xorlw	204
  1137  0154  1D03               	skipz
  1138  0155  2959               	goto	l4666
  1139  0156  3008               	movlw	8
  1140  0157  01F2               	clrf	?_WRITE_EEPROM
  1141  0158  226A               	fcall	_WRITE_EEPROM
  1142  0159                     l4666:	
  1143                           
  1144                           ;smartkey.C: 479: if(reAlertOn){
  1145  0159  0878               	movf	main@reAlertOn,w
  1146  015A  1903               	btfsc	3,2
  1147  015B  296F               	goto	l4676
  1148                           
  1149                           ;smartkey.C: 480: setState(4,6000);
  1150  015C  3070               	movlw	112
  1151  015D  00F2               	movwf	?_setState
  1152  015E  3017               	movlw	23
  1153  015F  00F3               	movwf	?_setState+1
  1154  0160  3004               	movlw	4
  1155  0161  22E1               	fcall	_setState
  1156                           
  1157                           ;smartkey.C: 481: cntTmp = timeTick+40;
  1158  0162  087A               	movf	_timeTick+1,w
  1159  0163  00A1               	movwf	_cntTmp+1
  1160  0164  0879               	movf	_timeTick,w
  1161  0165  00A0               	movwf	_cntTmp
  1162  0166  3028               	movlw	40
  1163  0167  07A0               	addwf	_cntTmp,f
  1164  0168  1803               	skipnc
  1165  0169  0AA1               	incf	_cntTmp+1,f
  1166                           
  1167                           ;smartkey.C: 482: PR2L =11;
  1168  016A  300B               	movlw	11
  1169  016B  1683               	bsf	3,5	;RP0=1, select bank1
  1170  016C  0091               	movwf	17	;volatile
  1171                           
  1172                           ;smartkey.C: 483: beepOn();
  1173  016D  2305               	fcall	_beepOn
  1174                           
  1175                           ;smartkey.C: 485: }else if(mtOldState == 0){
  1176  016E  299A               	goto	l906
  1177  016F                     l4676:	
  1178  016F  1283               	bcf	3,5	;RP0=0, select bank0
  1179  0170  08A9               	movf	_mtOldState,f
  1180  0171  1D03               	skipz
  1181  0172  297F               	goto	l4682
  1182                           
  1183                           ;smartkey.C: 487: beep(10,5);
  1184  0173  3005               	movlw	5
  1185  0174  00F6               	movwf	?_beep
  1186  0175  300A               	movlw	10
  1187  0176  2299               	fcall	_beep
  1188  0177  30AC               	movlw	172
  1189                           
  1190                           ;smartkey.C: 488: RegStatus |=(0x20);
  1191  0178  16A4               	bsf	_RegStatus,5
  1192                           
  1193                           ;smartkey.C: 490: setState(1,3500);
  1194  0179  00F2               	movwf	?_setState
  1195  017A  300D               	movlw	13
  1196  017B  00F3               	movwf	?_setState+1
  1197  017C  3001               	movlw	1
  1198  017D  22E1               	fcall	_setState
  1199                           
  1200                           ;smartkey.C: 492: }else{
  1201  017E  299A               	goto	l906
  1202  017F                     l4682:	
  1203                           
  1204                           ;smartkey.C: 493: beepOn();TMR2ON = 0;
  1205  017F  2305               	fcall	_beepOn
  1206  0180  301E               	movlw	30
  1207  0181  1283               	bcf	3,5	;RP0=0, select bank0
  1208  0182  1112               	bcf	18,2
  1209                           
  1210                           ;smartkey.C: 494: reAlertOn =0;
  1211  0183  01F8               	clrf	main@reAlertOn
  1212  0184  01F6               	clrf	?_beep
  1213  0185  0AF6               	incf	?_beep,f
  1214  0186  2299               	fcall	_beep
  1215  0187  3000               	movlw	0
  1216                           
  1217                           ;smartkey.C: 496: setState(0,0);
  1218  0188  01F2               	clrf	?_setState
  1219  0189  01F3               	clrf	?_setState+1
  1220  018A  22E1               	fcall	_setState
  1221  018B  299A               	goto	l906
  1222  018C                     l4694:	
  1223  018C  082A               	movf	_mtState,w
  1224                           
  1225                           ; Switch size 1, requested type "space"
  1226                           ; Number of cases is 4, Range of values is 1 to 4
  1227                           ; switch strategies available:
  1228                           ; Name         Instructions Cycles
  1229                           ; simple_byte           13     7 (average)
  1230                           ; direct_byte           13     9 (fixed)
  1231                           ; jumptable            263     9 (fixed)
  1232                           ;	Chosen strategy is simple_byte
  1233  018D  3A01               	xorlw	1	; case 1
  1234  018E  1903               	skipnz
  1235  018F  299A               	goto	l906
  1236  0190  3A03               	xorlw	3	; case 2
  1237  0191  1903               	skipnz
  1238  0192  2951               	goto	l4662
  1239  0193  3A01               	xorlw	1	; case 3
  1240  0194  1903               	skipnz
  1241  0195  2935               	goto	l4642
  1242  0196  3A07               	xorlw	7	; case 4
  1243  0197  1903               	skipnz
  1244  0198  293F               	goto	l4648
  1245  0199  299A               	goto	l906
  1246  019A                     l906:	
  1247                           
  1248                           ;smartkey.C: 500: }
  1249                           ;smartkey.C: 502: }
  1250                           ;smartkey.C: 504: if((RC1 ) && (mtState == 1)){
  1251  019A  1283               	bcf	3,5	;RP0=0, select bank0
  1252  019B  1C87               	btfss	7,1
  1253  019C  29D9               	goto	l4728
  1254  019D  0B2A               	decfsz	_mtState,w
  1255  019E  29D9               	goto	l4728
  1256                           
  1257                           ;smartkey.C: 505: timeTick =0;
  1258  019F  01F9               	clrf	_timeTick
  1259  01A0  01FA               	clrf	_timeTick+1
  1260  01A1                     l4700:	
  1261                           ;smartkey.C: 506: while(timeTick <700);
  1262                           
  1263  01A1  3002               	movlw	2
  1264  01A2  027A               	subwf	_timeTick+1,w
  1265  01A3  30BC               	movlw	188
  1266  01A4  1903               	skipnz
  1267  01A5  0279               	subwf	_timeTick,w
  1268  01A6  1C03               	skipc
  1269  01A7  29A1               	goto	l4700
  1270                           
  1271                           ;smartkey.C: 508: cntTmp=0;
  1272  01A8  01A0               	clrf	_cntTmp
  1273  01A9  01A1               	clrf	_cntTmp+1
  1274                           
  1275                           ;smartkey.C: 509: while((RC1) &&( cntTmp<9)){
  1276  01AA  29C9               	goto	l4714
  1277  01AB                     l4716:	
  1278  01AB  3000               	movlw	0
  1279  01AC  0221               	subwf	_cntTmp+1,w
  1280  01AD  3009               	movlw	9
  1281  01AE  1903               	skipnz
  1282  01AF  0220               	subwf	_cntTmp,w
  1283  01B0  1803               	btfsc	3,0
  1284  01B1  29CC               	goto	l4718
  1285                           
  1286                           ;smartkey.C: 510: beepOn();TMR2ON = 0; beep(10,1);
  1287  01B2  2305               	fcall	_beepOn
  1288  01B3  300A               	movlw	10
  1289  01B4  1283               	bcf	3,5	;RP0=0, select bank0
  1290  01B5  1112               	bcf	18,2
  1291  01B6  01F6               	clrf	?_beep
  1292  01B7  0AF6               	incf	?_beep,f
  1293  01B8  2299               	fcall	_beep
  1294                           
  1295                           ;smartkey.C: 511: cntTmp++;
  1296  01B9  0AA0               	incf	_cntTmp,f
  1297  01BA  1903               	skipnz
  1298  01BB  0AA1               	incf	_cntTmp+1,f
  1299                           
  1300                           ;smartkey.C: 512: _delay((unsigned long)((1000)*(4000000/4000.0)));
  1301  01BC  3006               	movlw	6
  1302  01BD  00AD               	movwf	??_main+2
  1303  01BE  3013               	movlw	19
  1304  01BF  00AC               	movwf	??_main+1
  1305  01C0  30B1               	movlw	177
  1306  01C1  00AB               	movwf	??_main
  1307  01C2                     u1517:	
  1308  01C2  0BAB               	decfsz	??_main,f
  1309  01C3  29C2               	goto	u1517
  1310  01C4  0BAC               	decfsz	??_main+1,f
  1311  01C5  29C2               	goto	u1517
  1312  01C6  0BAD               	decfsz	??_main+2,f
  1313  01C7  29C2               	goto	u1517
  1314  01C8  29C9               	nop2
  1315  01C9                     l4714:	
  1316  01C9  1283               	bcf	3,5	;RP0=0, select bank0
  1317  01CA  1887               	btfsc	7,1
  1318  01CB  29AB               	goto	l4716
  1319  01CC                     l4718:	
  1320                           
  1321                           ;smartkey.C: 513: }
  1322                           ;smartkey.C: 514: cntTmp =0;
  1323  01CC  01A0               	clrf	_cntTmp
  1324  01CD  01A1               	clrf	_cntTmp+1
  1325                           
  1326                           ;smartkey.C: 515: if(RC1){
  1327  01CE  1C87               	btfss	7,1
  1328  01CF  29D7               	goto	l4726
  1329  01D0  302C               	movlw	44
  1330                           
  1331                           ;smartkey.C: 517: RegStatus &=(~0x20);
  1332  01D1  12A4               	bcf	_RegStatus,5
  1333                           
  1334                           ;smartkey.C: 518: setState(2,300);
  1335  01D2  00F2               	movwf	?_setState
  1336  01D3  3001               	movlw	1
  1337  01D4  00F3               	movwf	?_setState+1
  1338  01D5  3002               	movlw	2
  1339  01D6  22E1               	fcall	_setState
  1340  01D7                     l4726:	
  1341                           
  1342                           ;smartkey.C: 519: }
  1343                           ;smartkey.C: 521: timeTick =0;
  1344  01D7  01F9               	clrf	_timeTick
  1345  01D8  01FA               	clrf	_timeTick+1
  1346  01D9                     l4728:	
  1347                           
  1348                           ;smartkey.C: 522: }
  1349                           ;smartkey.C: 525: if(RegStatus & 0x20) {RC4 =1;RC5 =1;}
  1350  01D9  1EA4               	btfss	_RegStatus,5
  1351  01DA  29DE               	goto	l928
  1352  01DB  1607               	bsf	7,4
  1353  01DC  1687               	bsf	7,5
  1354  01DD  286D               	goto	l4542
  1355  01DE                     l928:	
  1356                           
  1357                           ;smartkey.C: 526: else {RC4 =0;RC5 =0;}
  1358  01DE  1207               	bcf	7,4
  1359  01DF  1287               	bcf	7,5
  1360  01E0  286D               	goto	l4542
  1361  01E1                     __end_of_main:	
  1362                           
  1363                           	psect	swtext1
  1364  0300                     __pswtext1:	
  1365  0300                     S4768:	
  1366  0300  2927               	ljmp	l897
  1367  0301  287E               	ljmp	l4552
  1368  0302  287F               	ljmp	l4554
  1369  0303  28B7               	ljmp	l4584
  1370  0304  28D0               	ljmp	l4594
  1371                           
  1372                           	psect	text457
  1373  02EE                     __ptext457:	
  1374 ;; =============== function _main ends ============
  1375                           
  1376                           
  1377 ;; *************** function _sys_init *****************
  1378 ;; Defined at:
  1379 ;;		line 3 in file "sysinit.c"
  1380 ;; Parameters:    Size  Location     Type
  1381 ;;		None
  1382 ;; Auto vars:     Size  Location     Type
  1383 ;;		None
  1384 ;; Return value:  Size  Location     Type
  1385 ;;		None               void
  1386 ;; Registers used:
  1387 ;;		wreg
  1388 ;; Tracked objects:
  1389 ;;		On entry : 0/0
  1390 ;;		On exit  : 20/20
  1391 ;;		Unchanged: 0/0
  1392 ;; Data sizes:     COMMON   BANK0   BANK1
  1393 ;;      Params:         0       0       0
  1394 ;;      Locals:         0       0       0
  1395 ;;      Temps:          0       0       0
  1396 ;;      Totals:         0       0       0
  1397 ;;Total ram usage:        0 bytes
  1398 ;; Hardware stack levels used:    1
  1399 ;; Hardware stack levels required when called:    1
  1400 ;; This function calls:
  1401 ;;		Nothing
  1402 ;; This function is called by:
  1403 ;;		_main
  1404 ;; This function uses a non-reentrant model
  1405 ;;
  1406  02EE                     _sys_init:	
  1407                           
  1408                           ;sysinit.c: 21: OSCCON = 0B01010001;
  1409                           
  1410                           ; Regs used in _sys_init: [wreg]
  1411  02EE  3051               	movlw	81
  1412  02EF  1683               	bsf	3,5	;RP0=1, select bank1
  1413  02F0  008F               	movwf	15	;volatile
  1414                           
  1415                           ;sysinit.c: 22: _nop();
  1416  02F1  0000               	nop
  1417  02F2                     l1719:	
  1418                           ;sysinit.c: 28: while(HTS==0);
  1419                           
  1420  02F2  1683               	bsf	3,5	;RP0=1, select bank1
  1421  02F3  190F               	btfsc	15,2
  1422  02F4  0008               	return
  1423  02F5  2AF2               	goto	l1719
  1424  02F6                     __end_of_sys_init:	
  1425                           
  1426                           	psect	text458
  1427  0299                     __ptext458:	
  1428 ;; =============== function _sys_init ends ============
  1429                           
  1430                           
  1431 ;; *************** function _beep *****************
  1432 ;; Defined at:
  1433 ;;		line 163 in file "smartkey.C"
  1434 ;; Parameters:    Size  Location     Type
  1435 ;;  delay           1    wreg     unsigned char 
  1436 ;;  rep             1    6[COMMON] unsigned char 
  1437 ;; Auto vars:     Size  Location     Type
  1438 ;;  delay           1    7[COMMON] unsigned char 
  1439 ;; Return value:  Size  Location     Type
  1440 ;;		None               void
  1441 ;; Registers used:
  1442 ;;		wreg, status,2, status,0, pclath, cstack
  1443 ;; Tracked objects:
  1444 ;;		On entry : 20/0
  1445 ;;		On exit  : 20/0
  1446 ;;		Unchanged: FFFDF/0
  1447 ;; Data sizes:     COMMON   BANK0   BANK1
  1448 ;;      Params:         1       0       0
  1449 ;;      Locals:         1       0       0
  1450 ;;      Temps:          0       0       0
  1451 ;;      Totals:         2       0       0
  1452 ;;Total ram usage:        2 bytes
  1453 ;; Hardware stack levels used:    1
  1454 ;; Hardware stack levels required when called:    2
  1455 ;; This function calls:
  1456 ;;		_delay_x10ms
  1457 ;; This function is called by:
  1458 ;;		_main
  1459 ;; This function uses a non-reentrant model
  1460 ;;
  1461  0299                     _beep:	
  1462                           
  1463                           ; Regs used in _beep: [wreg+status,2+status,0+pclath+cstack]
  1464                           ;beep@delay stored from wreg
  1465  0299  00F7               	movwf	beep@delay
  1466  029A                     l4206:	
  1467                           ;smartkey.C: 166: {
  1468                           ;smartkey.C: 168: while(rep--){
  1469                           
  1470  029A  03F6               	decf	beep@rep,f
  1471  029B  0876               	movf	beep@rep,w
  1472  029C  3AFF               	xorlw	255
  1473  029D  1903               	btfsc	3,2
  1474  029E  0008               	return
  1475  029F  300C               	movlw	12
  1476                           
  1477                           ;smartkey.C: 169: TMR2ON = 1;
  1478  02A0  1512               	bsf	18,2
  1479                           
  1480                           ;smartkey.C: 170: PR2L = 12;
  1481  02A1  1683               	bsf	3,5	;RP0=1, select bank1
  1482  02A2  0091               	movwf	17	;volatile
  1483                           
  1484                           ;smartkey.C: 171: delay_x10ms(delay);
  1485  02A3  0877               	movf	beep@delay,w
  1486  02A4  00F2               	movwf	?_delay_x10ms
  1487  02A5  01F3               	clrf	?_delay_x10ms+1
  1488  02A6  22AF               	fcall	_delay_x10ms
  1489  02A7  3014               	movlw	20
  1490                           
  1491                           ;smartkey.C: 172: TMR2ON = 0;RA5 =0;
  1492  02A8  1283               	bcf	3,5	;RP0=0, select bank0
  1493  02A9  1112               	bcf	18,2
  1494  02AA  1285               	bcf	5,5
  1495                           
  1496                           ;smartkey.C: 173: delay_x10ms(20);
  1497  02AB  00F2               	movwf	?_delay_x10ms
  1498  02AC  01F3               	clrf	?_delay_x10ms+1
  1499  02AD  22AF               	fcall	_delay_x10ms
  1500  02AE  2A9A               	goto	l4206
  1501  02AF                     __end_of_beep:	
  1502                           
  1503                           	psect	text459
  1504  024F                     __ptext459:	
  1505 ;; =============== function _beep ends ============
  1506                           
  1507                           
  1508 ;; *************** function _int_init *****************
  1509 ;; Defined at:
  1510 ;;		line 79 in file "sysinit.c"
  1511 ;; Parameters:    Size  Location     Type
  1512 ;;		None
  1513 ;; Auto vars:     Size  Location     Type
  1514 ;;  tmp             1    0        unsigned char 
  1515 ;; Return value:  Size  Location     Type
  1516 ;;		None               void
  1517 ;; Registers used:
  1518 ;;		wreg, status,2
  1519 ;; Tracked objects:
  1520 ;;		On entry : 20/0
  1521 ;;		On exit  : 20/0
  1522 ;;		Unchanged: FFFDF/0
  1523 ;; Data sizes:     COMMON   BANK0   BANK1
  1524 ;;      Params:         0       0       0
  1525 ;;      Locals:         0       0       0
  1526 ;;      Temps:          0       0       0
  1527 ;;      Totals:         0       0       0
  1528 ;;Total ram usage:        0 bytes
  1529 ;; Hardware stack levels used:    1
  1530 ;; Hardware stack levels required when called:    1
  1531 ;; This function calls:
  1532 ;;		Nothing
  1533 ;; This function is called by:
  1534 ;;		_main
  1535 ;; This function uses a non-reentrant model
  1536 ;;
  1537  024F                     _int_init:	
  1538                           
  1539                           ;sysinit.c: 84: INTCON = 0B00000000;
  1540                           
  1541                           ; Regs used in _int_init: [wreg+status,2]
  1542  024F  018B               	clrf	11	;volatile
  1543                           
  1544                           ;sysinit.c: 85: PIE1 = 0B00000000;
  1545  0250  1683               	bsf	3,5	;RP0=1, select bank1
  1546  0251  018C               	clrf	12	;volatile
  1547                           
  1548                           ;sysinit.c: 86: PIR1 = 0B00000000;
  1549  0252  1283               	bcf	3,5	;RP0=0, select bank0
  1550  0253  018C               	clrf	12	;volatile
  1551                           
  1552                           ;sysinit.c: 88: IOCA6 = 1;
  1553  0254  1683               	bsf	3,5	;RP0=1, select bank1
  1554  0255  1716               	bsf	22,6
  1555                           
  1556                           ;sysinit.c: 89: tmp = PORTA;
  1557  0256  1283               	bcf	3,5	;RP0=0, select bank0
  1558  0257  0805               	movf	5,w	;volatile
  1559                           
  1560                           ;sysinit.c: 90: PAIF = 0;
  1561  0258  100B               	bcf	11,0
  1562                           
  1563                           ;sysinit.c: 91: PAIE = 0;
  1564  0259  118B               	bcf	11,3
  1565                           
  1566                           ;sysinit.c: 94: INTEDG = 0;
  1567  025A  1683               	bsf	3,5	;RP0=1, select bank1
  1568  025B  1301               	bcf	1,6
  1569                           
  1570                           ;sysinit.c: 95: INTF = 0;
  1571  025C  108B               	bcf	11,1
  1572                           
  1573                           ;sysinit.c: 96: INTE = 0;
  1574  025D  120B               	bcf	11,4
  1575                           
  1576                           ;sysinit.c: 98: TMR2IF = 0;
  1577  025E  1283               	bcf	3,5	;RP0=0, select bank0
  1578  025F  108C               	bcf	12,1
  1579                           
  1580                           ;sysinit.c: 99: TMR2IE = 1;
  1581  0260  1683               	bsf	3,5	;RP0=1, select bank1
  1582  0261  148C               	bsf	12,1
  1583                           
  1584                           ;sysinit.c: 100: TMR2ON = 0;
  1585  0262  1283               	bcf	3,5	;RP0=0, select bank0
  1586  0263  1112               	bcf	18,2
  1587                           
  1588                           ;sysinit.c: 106: T0IF = 0;
  1589  0264  110B               	bcf	11,2
  1590                           
  1591                           ;sysinit.c: 107: T0IE = 1;
  1592  0265  168B               	bsf	11,5
  1593                           
  1594                           ;sysinit.c: 108: T0ON = 1;
  1595  0266  159F               	bsf	31,3
  1596                           
  1597                           ;sysinit.c: 110: PEIE = 1;
  1598  0267  170B               	bsf	11,6
  1599                           
  1600                           ;sysinit.c: 112: GIE = 1;
  1601  0268  178B               	bsf	11,7
  1602  0269  0008               	return
  1603  026A                     __end_of_int_init:	
  1604                           
  1605                           	psect	text460
  1606  02C2                     __ptext460:	
  1607 ;; =============== function _int_init ends ============
  1608                           
  1609                           
  1610 ;; *************** function _timer_init *****************
  1611 ;; Defined at:
  1612 ;;		line 51 in file "sysinit.c"
  1613 ;; Parameters:    Size  Location     Type
  1614 ;;		None
  1615 ;; Auto vars:     Size  Location     Type
  1616 ;;		None
  1617 ;; Return value:  Size  Location     Type
  1618 ;;		None               void
  1619 ;; Registers used:
  1620 ;;		wreg, status,2
  1621 ;; Tracked objects:
  1622 ;;		On entry : 20/0
  1623 ;;		On exit  : 20/0
  1624 ;;		Unchanged: FFFDF/0
  1625 ;; Data sizes:     COMMON   BANK0   BANK1
  1626 ;;      Params:         0       0       0
  1627 ;;      Locals:         0       0       0
  1628 ;;      Temps:          0       0       0
  1629 ;;      Totals:         0       0       0
  1630 ;;Total ram usage:        0 bytes
  1631 ;; Hardware stack levels used:    1
  1632 ;; Hardware stack levels required when called:    1
  1633 ;; This function calls:
  1634 ;;		Nothing
  1635 ;; This function is called by:
  1636 ;;		_main
  1637 ;; This function uses a non-reentrant model
  1638 ;;
  1639  02C2                     _timer_init:	
  1640                           
  1641                           ;sysinit.c: 59: T0CON0 = 0B00000000;
  1642                           
  1643                           ; Regs used in _timer_init: [wreg+status,2]
  1644  02C2  019F               	clrf	31	;volatile
  1645                           
  1646                           ;sysinit.c: 60: OPTION = 0B00000111;
  1647  02C3  3007               	movlw	7
  1648  02C4  1683               	bsf	3,5	;RP0=1, select bank1
  1649  02C5  0081               	movwf	1	;volatile
  1650                           
  1651                           ;sysinit.c: 61: TMR0 = 179;
  1652  02C6  30B3               	movlw	179
  1653  02C7  1283               	bcf	3,5	;RP0=0, select bank0
  1654  02C8  0081               	movwf	1	;volatile
  1655                           
  1656                           ;sysinit.c: 63: TMR2H = 0;
  1657  02C9  0193               	clrf	19	;volatile
  1658                           
  1659                           ;sysinit.c: 64: TMR2L = 0;
  1660  02CA  0191               	clrf	17	;volatile
  1661                           
  1662                           ;sysinit.c: 65: PR2H = 0;
  1663  02CB  1683               	bsf	3,5	;RP0=1, select bank1
  1664  02CC  0192               	clrf	18	;volatile
  1665                           
  1666                           ;sysinit.c: 66: PR2L =0;
  1667  02CD  0191               	clrf	17	;volatile
  1668                           
  1669                           ;sysinit.c: 67: T2CON0 = 0B00101001;
  1670  02CE  3029               	movlw	41
  1671  02CF  1283               	bcf	3,5	;RP0=0, select bank0
  1672  02D0  0092               	movwf	18	;volatile
  1673  02D1  0008               	return
  1674  02D2                     __end_of_timer_init:	
  1675                           
  1676                           	psect	text461
  1677  0282                     __ptext461:	
  1678 ;; =============== function _timer_init ends ============
  1679                           
  1680                           
  1681 ;; *************** function _gpio_init *****************
  1682 ;; Defined at:
  1683 ;;		line 32 in file "sysinit.c"
  1684 ;; Parameters:    Size  Location     Type
  1685 ;;		None
  1686 ;; Auto vars:     Size  Location     Type
  1687 ;;		None
  1688 ;; Return value:  Size  Location     Type
  1689 ;;		None               void
  1690 ;; Registers used:
  1691 ;;		wreg, status,2
  1692 ;; Tracked objects:
  1693 ;;		On entry : 20/20
  1694 ;;		On exit  : 20/0
  1695 ;;		Unchanged: FFFDF/0
  1696 ;; Data sizes:     COMMON   BANK0   BANK1
  1697 ;;      Params:         0       0       0
  1698 ;;      Locals:         0       0       0
  1699 ;;      Temps:          0       0       0
  1700 ;;      Totals:         0       0       0
  1701 ;;Total ram usage:        0 bytes
  1702 ;; Hardware stack levels used:    1
  1703 ;; Hardware stack levels required when called:    1
  1704 ;; This function calls:
  1705 ;;		Nothing
  1706 ;; This function is called by:
  1707 ;;		_main
  1708 ;; This function uses a non-reentrant model
  1709 ;;
  1710  0282                     _gpio_init:	
  1711                           
  1712                           ;sysinit.c: 34: PORTA = 0B00000000;
  1713                           
  1714                           ; Regs used in _gpio_init: [wreg+status,2]
  1715  0282  1283               	bcf	3,5	;RP0=0, select bank0
  1716  0283  0185               	clrf	5	;volatile
  1717                           
  1718                           ;sysinit.c: 35: TRISA = 0B01011110;
  1719  0284  305E               	movlw	94
  1720  0285  1683               	bsf	3,5	;RP0=1, select bank1
  1721  0286  0085               	movwf	5	;volatile
  1722                           
  1723                           ;sysinit.c: 36: WPUA = 0B10100000;
  1724  0287  30A0               	movlw	160
  1725  0288  0095               	movwf	21	;volatile
  1726                           
  1727                           ;sysinit.c: 38: PORTC = 0B00000000;
  1728  0289  1283               	bcf	3,5	;RP0=0, select bank0
  1729  028A  0187               	clrf	7	;volatile
  1730                           
  1731                           ;sysinit.c: 39: TRISC = 0B11001111;
  1732  028B  30CF               	movlw	207
  1733  028C  1683               	bsf	3,5	;RP0=1, select bank1
  1734  028D  0087               	movwf	7	;volatile
  1735                           
  1736                           ;sysinit.c: 40: WPUC = 0B00110000;
  1737  028E  3030               	movlw	48
  1738  028F  0093               	movwf	19	;volatile
  1739                           
  1740                           ;sysinit.c: 42: PSRCA = 0B11111111;
  1741  0290  30FF               	movlw	255
  1742  0291  0088               	movwf	8	;volatile
  1743                           
  1744                           ;sysinit.c: 43: PSRCC = 0B11111111;
  1745  0292  0094               	movwf	20	;volatile
  1746                           
  1747                           ;sysinit.c: 44: PSINKA = 0B11111111;
  1748  0293  0097               	movwf	23	;volatile
  1749                           
  1750                           ;sysinit.c: 45: PSINKC = 0B11111111;
  1751  0294  009F               	movwf	31	;volatile
  1752                           
  1753                           ;sysinit.c: 47: MSCON = 0B00110000;
  1754  0295  3030               	movlw	48
  1755  0296  1283               	bcf	3,5	;RP0=0, select bank0
  1756  0297  009B               	movwf	27	;volatile
  1757  0298  0008               	return
  1758  0299                     __end_of_gpio_init:	
  1759                           
  1760                           	psect	text462
  1761  02E1                     __ptext462:	
  1762 ;; =============== function _gpio_init ends ============
  1763                           
  1764                           
  1765 ;; *************** function _setState *****************
  1766 ;; Defined at:
  1767 ;;		line 208 in file "smartkey.C"
  1768 ;; Parameters:    Size  Location     Type
  1769 ;;  stt             1    wreg     unsigned char 
  1770 ;;  _tOut           2    2[COMMON] unsigned int 
  1771 ;; Auto vars:     Size  Location     Type
  1772 ;;  stt             1    4[COMMON] unsigned char 
  1773 ;; Return value:  Size  Location     Type
  1774 ;;		None               void
  1775 ;; Registers used:
  1776 ;;		wreg, status,2
  1777 ;; Tracked objects:
  1778 ;;		On entry : 0/0
  1779 ;;		On exit  : 20/0
  1780 ;;		Unchanged: FFFDF/0
  1781 ;; Data sizes:     COMMON   BANK0   BANK1
  1782 ;;      Params:         2       0       0
  1783 ;;      Locals:         1       0       0
  1784 ;;      Temps:          0       0       0
  1785 ;;      Totals:         3       0       0
  1786 ;;Total ram usage:        3 bytes
  1787 ;; Hardware stack levels used:    1
  1788 ;; Hardware stack levels required when called:    1
  1789 ;; This function calls:
  1790 ;;		Nothing
  1791 ;; This function is called by:
  1792 ;;		_main
  1793 ;; This function uses a non-reentrant model
  1794 ;;
  1795  02E1                     _setState:	
  1796                           
  1797                           ; Regs used in _setState: [wreg+status,2]
  1798                           ;setState@stt stored from wreg
  1799  02E1  00F4               	movwf	setState@stt
  1800                           
  1801                           ;smartkey.C: 209: mtOldState = mtState;
  1802  02E2  1283               	bcf	3,5	;RP0=0, select bank0
  1803  02E3  082A               	movf	_mtState,w
  1804  02E4  00A9               	movwf	_mtOldState
  1805                           
  1806                           ;smartkey.C: 210: mtState = stt;
  1807  02E5  0874               	movf	setState@stt,w
  1808  02E6  00AA               	movwf	_mtState
  1809                           
  1810                           ;smartkey.C: 211: timeTick =0;
  1811  02E7  01F9               	clrf	_timeTick
  1812  02E8  01FA               	clrf	_timeTick+1
  1813                           
  1814                           ;smartkey.C: 212: timeOut = _tOut;
  1815  02E9  0873               	movf	setState@_tOut+1,w
  1816  02EA  00A3               	movwf	_timeOut+1
  1817  02EB  0872               	movf	setState@_tOut,w
  1818  02EC  00A2               	movwf	_timeOut
  1819  02ED  0008               	return
  1820  02EE                     __end_of_setState:	
  1821                           
  1822                           	psect	text463
  1823  026A                     __ptext463:	
  1824 ;; =============== function _setState ends ============
  1825                           
  1826                           
  1827 ;; *************** function _WRITE_EEPROM *****************
  1828 ;; Defined at:
  1829 ;;		line 193 in file "smartkey.C"
  1830 ;; Parameters:    Size  Location     Type
  1831 ;;  EEAddr          1    wreg     unsigned char 
  1832 ;;  EEData          1    2[COMMON] unsigned char 
  1833 ;; Auto vars:     Size  Location     Type
  1834 ;;  EEAddr          1    3[COMMON] unsigned char 
  1835 ;; Return value:  Size  Location     Type
  1836 ;;		None               void
  1837 ;; Registers used:
  1838 ;;		wreg
  1839 ;; Tracked objects:
  1840 ;;		On entry : 0/0
  1841 ;;		On exit  : 20/20
  1842 ;;		Unchanged: FFE00/0
  1843 ;; Data sizes:     COMMON   BANK0   BANK1
  1844 ;;      Params:         1       0       0
  1845 ;;      Locals:         1       0       0
  1846 ;;      Temps:          0       0       0
  1847 ;;      Totals:         2       0       0
  1848 ;;Total ram usage:        2 bytes
  1849 ;; Hardware stack levels used:    1
  1850 ;; Hardware stack levels required when called:    1
  1851 ;; This function calls:
  1852 ;;		Nothing
  1853 ;; This function is called by:
  1854 ;;		_main
  1855 ;; This function uses a non-reentrant model
  1856 ;;
  1857  026A                     _WRITE_EEPROM:	
  1858                           
  1859                           ; Regs used in _WRITE_EEPROM: [wreg]
  1860                           ;WRITE_EEPROM@EEAddr stored from wreg
  1861  026A  00F3               	movwf	WRITE_EEPROM@EEAddr
  1862                           
  1863                           ;smartkey.C: 194: GIE = 0;
  1864  026B  138B               	bcf	11,7
  1865  026C                     l858:	
  1866                           ;smartkey.C: 195: while(GIE) asm("clrwdt");
  1867                           
  1868  026C  1F8B               	btfss	11,7
  1869  026D  2A70               	goto	l4122
  1870  026E  0064               	clrwdt	;#
  1871  026F  2A6C               	goto	l858
  1872  0270                     l4122:	
  1873                           
  1874                           ;smartkey.C: 196: EEADR = EEAddr;
  1875  0270  0873               	movf	WRITE_EEPROM@EEAddr,w
  1876  0271  1683               	bsf	3,5	;RP0=1, select bank1
  1877  0272  009B               	movwf	27	;volatile
  1878                           
  1879                           ;smartkey.C: 197: EEDAT = EEData;
  1880  0273  0872               	movf	WRITE_EEPROM@EEData,w
  1881  0274  009A               	movwf	26	;volatile
  1882  0275  3034               	movlw	52
  1883                           
  1884                           ;smartkey.C: 198: EEIF = 0;
  1885  0276  1283               	bcf	3,5	;RP0=0, select bank0
  1886  0277  138C               	bcf	12,7
  1887                           
  1888                           ;smartkey.C: 199: EECON1 = 0x34;
  1889  0278  1683               	bsf	3,5	;RP0=1, select bank1
  1890  0279  009C               	movwf	28	;volatile
  1891                           
  1892                           ;smartkey.C: 200: WR = 1;
  1893  027A  141D               	bsf	29,0
  1894  027B                     l861:	
  1895                           ;smartkey.C: 201: while(WR) asm("clrwdt");
  1896                           
  1897  027B  1683               	bsf	3,5	;RP0=1, select bank1
  1898  027C  1C1D               	btfss	29,0
  1899  027D  2A80               	goto	l863
  1900  027E  0064               	clrwdt	;#
  1901  027F  2A7B               	goto	l861
  1902  0280                     l863:	
  1903                           
  1904                           ;smartkey.C: 203: GIE = 1;
  1905  0280  178B               	bsf	11,7
  1906  0281  0008               	return
  1907  0282                     __end_of_WRITE_EEPROM:	
  1908                           
  1909                           	psect	text464
  1910  02F6                     __ptext464:	
  1911 ;; =============== function _WRITE_EEPROM ends ============
  1912                           
  1913                           
  1914 ;; *************** function _READ_EEPROM *****************
  1915 ;; Defined at:
  1916 ;;		line 182 in file "smartkey.C"
  1917 ;; Parameters:    Size  Location     Type
  1918 ;;  EEAddr          1    wreg     unsigned char 
  1919 ;; Auto vars:     Size  Location     Type
  1920 ;;  EEAddr          1    2[COMMON] unsigned char 
  1921 ;;  ReEepromData    1    3[COMMON] unsigned char 
  1922 ;; Return value:  Size  Location     Type
  1923 ;;                  1    wreg      unsigned char 
  1924 ;; Registers used:
  1925 ;;		wreg
  1926 ;; Tracked objects:
  1927 ;;		On entry : 0/20
  1928 ;;		On exit  : 20/20
  1929 ;;		Unchanged: FFFDF/0
  1930 ;; Data sizes:     COMMON   BANK0   BANK1
  1931 ;;      Params:         0       0       0
  1932 ;;      Locals:         2       0       0
  1933 ;;      Temps:          0       0       0
  1934 ;;      Totals:         2       0       0
  1935 ;;Total ram usage:        2 bytes
  1936 ;; Hardware stack levels used:    1
  1937 ;; Hardware stack levels required when called:    1
  1938 ;; This function calls:
  1939 ;;		Nothing
  1940 ;; This function is called by:
  1941 ;;		_main
  1942 ;; This function uses a non-reentrant model
  1943 ;;
  1944  02F6                     _READ_EEPROM:	
  1945                           
  1946                           ; Regs used in _READ_EEPROM: [wreg]
  1947                           ;READ_EEPROM@EEAddr stored from wreg
  1948  02F6  00F2               	movwf	READ_EEPROM@EEAddr
  1949                           
  1950                           ;smartkey.C: 183: unsigned char ReEepromData;
  1951                           ;smartkey.C: 185: EEADR = EEAddr;
  1952  02F7  1683               	bsf	3,5	;RP0=1, select bank1
  1953  02F8  009B               	movwf	27	;volatile
  1954                           
  1955                           ;smartkey.C: 186: RD = 1;
  1956  02F9  141C               	bsf	28,0
  1957                           
  1958                           ;smartkey.C: 187: ReEepromData = EEDAT;
  1959  02FA  081A               	movf	26,w	;volatile
  1960  02FB  00F3               	movwf	READ_EEPROM@ReEepromData
  1961                           
  1962                           ;smartkey.C: 188: RD = 0;
  1963  02FC  101C               	bcf	28,0
  1964                           
  1965                           ;smartkey.C: 189: return ReEepromData;
  1966  02FD  0008               	return
  1967  02FE                     __end_of_READ_EEPROM:	
  1968                           
  1969                           	psect	text465
  1970  0305                     __ptext465:	
  1971 ;; =============== function _READ_EEPROM ends ============
  1972                           
  1973                           
  1974 ;; *************** function _beepOn *****************
  1975 ;; Defined at:
  1976 ;;		line 159 in file "smartkey.C"
  1977 ;; Parameters:    Size  Location     Type
  1978 ;;		None
  1979 ;; Auto vars:     Size  Location     Type
  1980 ;;		None
  1981 ;; Return value:  Size  Location     Type
  1982 ;;		None               void
  1983 ;; Registers used:
  1984 ;;		None
  1985 ;; Tracked objects:
  1986 ;;		On entry : 0/20
  1987 ;;		On exit  : 20/20
  1988 ;;		Unchanged: FFFDF/0
  1989 ;; Data sizes:     COMMON   BANK0   BANK1
  1990 ;;      Params:         0       0       0
  1991 ;;      Locals:         0       0       0
  1992 ;;      Temps:          0       0       0
  1993 ;;      Totals:         0       0       0
  1994 ;;Total ram usage:        0 bytes
  1995 ;; Hardware stack levels used:    1
  1996 ;; Hardware stack levels required when called:    1
  1997 ;; This function calls:
  1998 ;;		Nothing
  1999 ;; This function is called by:
  2000 ;;		_main
  2001 ;; This function uses a non-reentrant model
  2002 ;;
  2003  0305                     _beepOn:	
  2004                           
  2005                           ;smartkey.C: 160: TMR2ON = 1;
  2006                           
  2007                           ; Regs used in _beepOn: []
  2008  0305  1283               	bcf	3,5	;RP0=0, select bank0
  2009  0306  1512               	bsf	18,2
  2010                           
  2011                           ;smartkey.C: 161: TRISA &= 0xdf;
  2012  0307  1683               	bsf	3,5	;RP0=1, select bank1
  2013  0308  1285               	bcf	5,5	;volatile
  2014  0309  0008               	return
  2015  030A                     __end_of_beepOn:	
  2016                           
  2017                           	psect	text466
  2018  030A                     __ptext466:	
  2019 ;; =============== function _beepOn ends ============
  2020                           
  2021                           
  2022 ;; *************** function _beepOff *****************
  2023 ;; Defined at:
  2024 ;;		line 156 in file "smartkey.C"
  2025 ;; Parameters:    Size  Location     Type
  2026 ;;		None
  2027 ;; Auto vars:     Size  Location     Type
  2028 ;;		None
  2029 ;; Return value:  Size  Location     Type
  2030 ;;		None               void
  2031 ;; Registers used:
  2032 ;;		None
  2033 ;; Tracked objects:
  2034 ;;		On entry : 20/0
  2035 ;;		On exit  : 20/20
  2036 ;;		Unchanged: FFFDF/0
  2037 ;; Data sizes:     COMMON   BANK0   BANK1
  2038 ;;      Params:         0       0       0
  2039 ;;      Locals:         0       0       0
  2040 ;;      Temps:          0       0       0
  2041 ;;      Totals:         0       0       0
  2042 ;;Total ram usage:        0 bytes
  2043 ;; Hardware stack levels used:    1
  2044 ;; Hardware stack levels required when called:    1
  2045 ;; This function calls:
  2046 ;;		Nothing
  2047 ;; This function is called by:
  2048 ;;		_main
  2049 ;; This function uses a non-reentrant model
  2050 ;;
  2051  030A                     _beepOff:	
  2052                           
  2053                           ;smartkey.C: 157: TMR2ON = 0;RA5 =0;TRISA |= 0x20;
  2054                           
  2055                           ; Regs used in _beepOff: []
  2056  030A  1112               	bcf	18,2
  2057  030B  1285               	bcf	5,5
  2058  030C  1683               	bsf	3,5	;RP0=1, select bank1
  2059  030D  1685               	bsf	5,5	;volatile
  2060  030E  0008               	return
  2061  030F                     __end_of_beepOff:	
  2062                           
  2063                           	psect	text467
  2064  02AF                     __ptext467:	
  2065 ;; =============== function _beepOff ends ============
  2066                           
  2067                           
  2068 ;; *************** function _delay_x10ms *****************
  2069 ;; Defined at:
  2070 ;;		line 151 in file "smartkey.C"
  2071 ;; Parameters:    Size  Location     Type
  2072 ;;  t               2    2[COMMON] unsigned int 
  2073 ;; Auto vars:     Size  Location     Type
  2074 ;;  set             2    4[COMMON] unsigned int 
  2075 ;; Return value:  Size  Location     Type
  2076 ;;		None               void
  2077 ;; Registers used:
  2078 ;;		wreg
  2079 ;; Tracked objects:
  2080 ;;		On entry : 0/20
  2081 ;;		On exit  : 0/20
  2082 ;;		Unchanged: FFFFF/0
  2083 ;; Data sizes:     COMMON   BANK0   BANK1
  2084 ;;      Params:         2       0       0
  2085 ;;      Locals:         2       0       0
  2086 ;;      Temps:          0       0       0
  2087 ;;      Totals:         4       0       0
  2088 ;;Total ram usage:        4 bytes
  2089 ;; Hardware stack levels used:    1
  2090 ;; Hardware stack levels required when called:    1
  2091 ;; This function calls:
  2092 ;;		Nothing
  2093 ;; This function is called by:
  2094 ;;		_beep
  2095 ;;		_main
  2096 ;; This function uses a non-reentrant model
  2097 ;;
  2098  02AF                     _delay_x10ms:	
  2099                           
  2100                           ;smartkey.C: 152: unsigned int set = t + timeTick;
  2101                           
  2102                           ; Regs used in _delay_x10ms: [wreg]
  2103  02AF  0873               	movf	delay_x10ms@t+1,w
  2104  02B0  00F5               	movwf	delay_x10ms@set+1
  2105  02B1  0872               	movf	delay_x10ms@t,w
  2106  02B2  00F4               	movwf	delay_x10ms@set
  2107  02B3  0879               	movf	_timeTick,w
  2108  02B4  07F4               	addwf	delay_x10ms@set,f
  2109  02B5  1803               	skipnc
  2110  02B6  0AF5               	incf	delay_x10ms@set+1,f
  2111  02B7  087A               	movf	_timeTick+1,w
  2112  02B8  07F5               	addwf	delay_x10ms@set+1,f
  2113  02B9                     l4106:	
  2114                           ;smartkey.C: 153: while(timeTick < set);
  2115                           
  2116  02B9  0875               	movf	delay_x10ms@set+1,w
  2117  02BA  027A               	subwf	_timeTick+1,w
  2118  02BB  1D03               	skipz
  2119  02BC  2ABF               	goto	u775
  2120  02BD  0874               	movf	delay_x10ms@set,w
  2121  02BE  0279               	subwf	_timeTick,w
  2122  02BF                     u775:	
  2123  02BF  1803               	btfsc	3,0
  2124  02C0  0008               	return
  2125  02C1  2AB9               	goto	l4106
  2126  02C2                     __end_of_delay_x10ms:	
  2127                           
  2128                           	psect	text468
  2129  01E1                     __ptext468:	
  2130 ;; =============== function _delay_x10ms ends ============
  2131                           
  2132                           
  2133 ;; *************** function _ISR *****************
  2134 ;; Defined at:
  2135 ;;		line 45 in file "smartkey.C"
  2136 ;; Parameters:    Size  Location     Type
  2137 ;;		None
  2138 ;; Auto vars:     Size  Location     Type
  2139 ;;  tmp             1    0        unsigned char 
  2140 ;; Return value:  Size  Location     Type
  2141 ;;		None               void
  2142 ;; Registers used:
  2143 ;;		wreg, status,2, status,0
  2144 ;; Tracked objects:
  2145 ;;		On entry : 0/0
  2146 ;;		On exit  : 0/0
  2147 ;;		Unchanged: FFFDF/0
  2148 ;; Data sizes:     COMMON   BANK0   BANK1
  2149 ;;      Params:         0       0       0
  2150 ;;      Locals:         0       0       0
  2151 ;;      Temps:          2       0       0
  2152 ;;      Totals:         2       0       0
  2153 ;;Total ram usage:        2 bytes
  2154 ;; Hardware stack levels used:    1
  2155 ;; This function calls:
  2156 ;;		Nothing
  2157 ;; This function is called by:
  2158 ;;		Interrupt level 1
  2159 ;; This function uses a non-reentrant model
  2160 ;;
  2161  01E1                     _ISR:	
  2162                           
  2163                           ;smartkey.C: 49: if(PAIE&&PAIF){
  2164  01E1  198B               	btfsc	11,3
  2165  01E2  1C0B               	btfss	11,0
  2166  01E3  29F2               	goto	i1l4052
  2167                           
  2168                           ;smartkey.C: 52: tmp = PORTA;
  2169  01E4  1283               	bcf	3,5	;RP0=0, select bank0
  2170  01E5  0805               	movf	5,w	;volatile
  2171                           
  2172                           ;smartkey.C: 53: PAIF = 0;
  2173  01E6  100B               	bcf	11,0
  2174                           
  2175                           ;smartkey.C: 55: if(RA6){
  2176  01E7  1F05               	btfss	5,6
  2177  01E8  29F1               	goto	i1l4050
  2178                           
  2179                           ;smartkey.C: 57: if(mode_chek == 0){
  2180  01E9  08A8               	movf	_mode_chek,f
  2181  01EA  1D03               	skipz
  2182  01EB  29F2               	goto	i1l4052
  2183                           
  2184                           ;smartkey.C: 58: cntCyc = 0;
  2185  01EC  01A5               	clrf	_cntCyc
  2186                           
  2187                           ;smartkey.C: 59: cntOff = 0;
  2188  01ED  01A6               	clrf	_cntOff
  2189                           
  2190                           ;smartkey.C: 61: mode_chek = 1;
  2191  01EE  01A8               	clrf	_mode_chek
  2192  01EF  0AA8               	incf	_mode_chek,f
  2193  01F0  29F2               	goto	i1l4052
  2194  01F1                     i1l4050:	
  2195                           
  2196                           ;smartkey.C: 66: else{
  2197                           ;smartkey.C: 67: cntOff = 0;
  2198  01F1  01A6               	clrf	_cntOff
  2199  01F2                     i1l4052:	
  2200                           
  2201                           ;smartkey.C: 70: }
  2202                           ;smartkey.C: 72: }
  2203                           ;smartkey.C: 78: if(T0IE&&T0IF){
  2204  01F2  1A8B               	btfsc	11,5
  2205  01F3  1D0B               	btfss	11,2
  2206  01F4  2A3F               	goto	i1l4096
  2207  01F5  30B3               	movlw	179
  2208                           
  2209                           ;smartkey.C: 79: T0IF = 0;
  2210  01F6  110B               	bcf	11,2
  2211                           
  2212                           ;smartkey.C: 80: TMR0 = 179;
  2213  01F7  1283               	bcf	3,5	;RP0=0, select bank0
  2214  01F8  0081               	movwf	1	;volatile
  2215                           
  2216                           ;smartkey.C: 86: if( mode_chek == 1){
  2217  01F9  0B28               	decfsz	_mode_chek,w
  2218  01FA  2A13               	goto	i1l4080
  2219                           
  2220                           ;smartkey.C: 88: cntCyc++;
  2221  01FB  0AA5               	incf	_cntCyc,f
  2222                           
  2223                           ;smartkey.C: 90: if(RA6==0){
  2224  01FC  1B05               	btfsc	5,6
  2225  01FD  2A13               	goto	i1l4080
  2226  01FE  3010               	movlw	16
  2227                           
  2228                           ;smartkey.C: 92: cntOff++;
  2229  01FF  0AA6               	incf	_cntOff,f
  2230                           
  2231                           ;smartkey.C: 95: if(cntOff > 15){
  2232  0200  0226               	subwf	_cntOff,w
  2233  0201  1C03               	skipc
  2234  0202  2A13               	goto	i1l4080
  2235  0203  3010               	movlw	16
  2236                           
  2237                           ;smartkey.C: 97: mode_chek = 0;
  2238  0204  01A8               	clrf	_mode_chek
  2239                           
  2240                           ;smartkey.C: 99: if((cntCyc>15) &&(cntCyc<50)) {
  2241  0205  0225               	subwf	_cntCyc,w
  2242  0206  3032               	movlw	50
  2243  0207  1C03               	skipc
  2244  0208  2A0F               	goto	L5
  2245  0209  0225               	subwf	_cntCyc,w
  2246  020A  1803               	skipnc
  2247  020B  2A0E               	goto	i1l4076
  2248                           
  2249                           ;smartkey.C: 100: RegStatus |= (0x40);
  2250  020C  1724               	bsf	_RegStatus,6
  2251                           
  2252                           ;smartkey.C: 101: } else if (cntCyc>=50){
  2253  020D  2A12               	goto	i1l824
  2254  020E                     i1l4076:	
  2255  020E  3032               	movlw	50
  2256  020F                     L5:	
  2257  020F  0225               	subwf	_cntCyc,w
  2258  0210  1803               	btfsc	3,0
  2259                           
  2260                           ;smartkey.C: 102: RegStatus &= ~(0x40);
  2261  0211  1324               	bcf	_RegStatus,6
  2262  0212                     i1l824:	
  2263                           
  2264                           ;smartkey.C: 103: }
  2265                           ;smartkey.C: 106: RegStatus |= 0x80;
  2266  0212  17A4               	bsf	_RegStatus,7
  2267  0213                     i1l4080:	
  2268                           
  2269                           ;smartkey.C: 107: }
  2270                           ;smartkey.C: 109: }
  2271                           ;smartkey.C: 119: }
  2272                           ;smartkey.C: 122: timeTick++;
  2273  0213  0AF9               	incf	_timeTick,f
  2274  0214  1903               	skipnz
  2275  0215  0AFA               	incf	_timeTick+1,f
  2276                           
  2277                           ;smartkey.C: 124: if((mtState == 4)||(mtState == 3)){
  2278  0216  082A               	movf	_mtState,w
  2279  0217  3A04               	xorlw	4
  2280  0218  1903               	skipnz
  2281  0219  2A1E               	goto	i1l4086
  2282  021A  082A               	movf	_mtState,w
  2283  021B  3A03               	xorlw	3
  2284  021C  1D03               	skipz
  2285  021D  2A3F               	goto	i1l4096
  2286  021E                     i1l4086:	
  2287                           
  2288                           ;smartkey.C: 126: if(timeTick > cntTmp){
  2289  021E  087A               	movf	_timeTick+1,w
  2290  021F  0221               	subwf	_cntTmp+1,w
  2291  0220  1D03               	skipz
  2292  0221  2A24               	goto	u72_25
  2293  0222  0879               	movf	_timeTick,w
  2294  0223  0220               	subwf	_cntTmp,w
  2295  0224                     u72_25:	
  2296  0224  1803               	skipnc
  2297  0225  2A3F               	goto	i1l4096
  2298                           
  2299                           ;smartkey.C: 127: cntTmp = timeTick+40;
  2300  0226  087A               	movf	_timeTick+1,w
  2301  0227  00A1               	movwf	_cntTmp+1
  2302  0228  0879               	movf	_timeTick,w
  2303  0229  00A0               	movwf	_cntTmp
  2304  022A  3028               	movlw	40
  2305  022B  07A0               	addwf	_cntTmp,f
  2306  022C  1803               	skipnc
  2307  022D  0AA1               	incf	_cntTmp+1,f
  2308                           
  2309                           ;smartkey.C: 128: if(cntTmp<=timeOut)
  2310  022E  0821               	movf	_cntTmp+1,w
  2311  022F  0223               	subwf	_timeOut+1,w
  2312  0230  1D03               	skipz
  2313  0231  2A34               	goto	u73_25
  2314  0232  0820               	movf	_cntTmp,w
  2315  0233  0222               	subwf	_timeOut,w
  2316  0234                     u73_25:	
  2317                           
  2318                           ;smartkey.C: 129: {
  2319                           ;smartkey.C: 130: if(PR2L == 11)
  2320  0234  1683               	bsf	3,5	;RP0=1, select bank1
  2321  0235  1C03               	skipc
  2322  0236  2A40               	goto	L6
  2323  0237  0811               	movf	17,w	;volatile
  2324  0238  3A0B               	xorlw	11
  2325  0239  1D03               	skipz
  2326  023A  2A3D               	goto	i1l4094
  2327                           
  2328                           ;smartkey.C: 131: PR2L = 30;
  2329  023B  301E               	movlw	30
  2330  023C  2A3E               	goto	L4
  2331  023D                     i1l4094:	
  2332                           
  2333                           ;smartkey.C: 132: else
  2334                           ;smartkey.C: 133: PR2L = 11;
  2335  023D  300B               	movlw	11
  2336  023E                     L4:	
  2337  023E  0091               	movwf	17	;volatile
  2338  023F                     i1l4096:	
  2339                           
  2340                           ;smartkey.C: 134: }
  2341                           ;smartkey.C: 135: }
  2342                           ;smartkey.C: 136: }
  2343                           ;smartkey.C: 139: }
  2344                           ;smartkey.C: 142: if(TMR2IE&&TMR2IF)
  2345  023F  1683               	bsf	3,5	;RP0=1, select bank1
  2346  0240                     L6:	
  2347  0240  1C8C               	btfss	12,1
  2348  0241  2A48               	goto	i1l834
  2349  0242  1283               	bcf	3,5	;RP0=0, select bank0
  2350  0243  1C8C               	btfss	12,1
  2351  0244  2A48               	goto	i1l834
  2352  0245  3020               	movlw	32
  2353                           
  2354                           ;smartkey.C: 143: {
  2355                           ;smartkey.C: 144: TMR2IF = 0;
  2356  0246  108C               	bcf	12,1
  2357                           
  2358                           ;smartkey.C: 145: RA5 =~ RA5;
  2359  0247  0685               	xorwf	5,f
  2360  0248                     i1l834:	
  2361  0248  0871               	movf	??_ISR+1,w
  2362  0249  008A               	movwf	10
  2363  024A  0E70               	swapf	??_ISR^(0+-128),w
  2364  024B  0083               	movwf	3
  2365  024C  0EFE               	swapf	126,f
  2366  024D  0E7E               	swapf	126,w
  2367  024E  0009               	retfie
  2368  024F                     __end_of_ISR:	
  2369                           
  2370                           	psect	intentry
  2371  0004                     __pintentry:	
  2372                           ; Regs used in _ISR: [wreg+status,2+status,0]
  2373                           
  2374  0004                     interrupt_function:	
  2375  007E                     saved_w	set	btemp
  2376  0004  00FE               	movwf	btemp
  2377  0005  0E03               	swapf	3,w
  2378  0006  00F0               	movwf	??_ISR
  2379  0007  080A               	movf	10,w
  2380  0008  00F1               	movwf	??_ISR+1
  2381  0009  29E1               	ljmp	_ISR
  2382                           
  2383                           	psect	text469
  2384  0000                     __ptext469:	
  2385 ;; =============== function _ISR ends ============
  2386                           
  2387  007E                     btemp	set	126	;btemp
  2388  007E                     wtemp0	set	126


HI-TECH Software PICC Macro Assembler V9.83 build 10920 
Symbol Table                                                                                   Thu Feb 13 10:36:13 2020

                      pc 0002                       _RD 04E0                       _WR 04E8  
  __size_of_WRITE_EEPROM 0018                       fsr 0004                      _C1R 08CA  
                    _C2R 08D2                      l900 010A                      l901 00F5  
                    l840 0000                      l906 019A                      l843 0000  
                    l852 0000                      l861 027B                      l846 0000  
                    l855 0000                      l863 0280                      l864 0000  
                    l928 01DE                      l858 026C                      l867 0000  
                    l888 00A8                      l897 0127                      _GIE 005F  
                    _RA0 0028                      _RC1 0039                      _RA5 002D  
                    _RA6 002E                      _RA7 002F                      _RC4 003C  
                    _RC5 003D                      _HTS 047A                      _ISR 01E1  
                    _SR0 0CF6                      _SR1 0CF7                      _VR0 08C0  
                    _VR1 08C1                      _VR2 08C2                      u775 02BF  
                    _VR3 08C3                      _VRR 08C5                     S4768 0300  
                   ?_ISR 0070                     _C1OE 08CD                     _C2OE 08D5  
                   l4110 0000                     l4104 0000                     l4112 0000  
                   l4120 0000                     l4200 0000                     _C1ON 08CF  
                   l4106 02B9                     l4114 0000                     l4122 0270  
                   l4130 0000                     l4202 0000                     l1722 0000  
                   l4210 0000                     l1731 0000                     l4108 0000  
                   l4116 0000                     l4124 0000                     l4132 0000  
                   l4140 0000                     l4204 0000                     _C2ON 08D7  
                   l1725 0000                     l4126 0000                     l4150 0000  
                   l4142 0000                     l4134 0000                     l4206 029A  
                   l1719 02F2                     l4128 0000                     l4152 0000  
                   l4144 0000                     l4136 0000                     l1728 0000  
                   l4160 0000                     l4208 0000                     l4146 0000  
                   l4138 0000                     l4154 0000                     l4170 0000  
                   l4162 0000                     l4148 0000                     l4156 0000  
                   l4180 0000                     l4172 0000                     l4164 0000  
                   l4500 0000                     l4158 0000                     l4190 0000  
                   l4182 0000                     l4174 0000                     l4166 0000  
                   l4510 0000                     l4502 0000                     l4192 0000  
                   l4184 0000                     l4176 0000                     l4168 0000  
                   l4600 00D8                     l4512 0000                     l4504 0000  
                   l4186 0000                     l4178 0000                     l4194 0000  
                   l4610 0000                     l4602 00E3                     l4530 0000  
                   l4522 0000                     l4514 0000                     l4506 0000  
                   l4188 0000                     l4196 0000                     l4700 01A1  
                   l4620 010F                     l4612 0000                     l4604 0000  
                   l4540 0000                     l4532 0000                     l4516 0000  
                   l4508 0000                     l4198 0000                     l4710 0000  
                   l4622 0000                     l4614 0000                     l4542 006D  
                   l4534 0000                     l4518 0000                     l4720 0000  
                   l4712 0000                     l4624 0000                     l4616 0000  
                   l4552 007E                     l4544 0075                     l4536 0000  
                   l4528 0000                     l4706 0000                     l4714 01C9  
                   l4650 0000                     l4642 0135                     l4626 0000  
                   l4618 010C                     l4562 0090                     l4554 007F  
                   l4634 011F                     l4538 0066                     l4490 0000  
                   l4724 0000                     l4716 01AB                     l4708 0000  
                   l4660 0000                     l4652 0000                     l4644 0000  
                   l4628 0000                     l4580 0000                     l4572 00A1  
                   l4636 0128                     l4492 0000                     l4726 01D7  
                   l4718 01CC                     l4670 0000                     l4662 0151  
                   l4654 0000                     l4646 0000                     l4574 0000  
                   l4566 0000                     l4558 0000                     l4494 0000  
                   l4728 01D9                     l4680 0000                     l4672 0000  
                   l4656 0000                     l4648 013F                     l4592 00C7  
                   l4584 00B7                     l4576 0000                     l4568 0000  
                   l4496 0000                     l4690 0000                     l4682 017F  
                   l4674 0000                     l4666 0159                     l4658 0000  
                   l4594 00D0                     l4578 00B4                     l4498 0000  
                   l4684 0000                     l4668 0000                     l4676 016F  
                   l4596 0000                     l4588 0000                     l4686 0000  
                   l4694 018C                     l4688 0000                     l4698 0000  
                   _EEIF 0067                     _ANS0 08F0                     _ANS1 08F1  
                   _ANS2 08F2                     _ANS3 08F3                     _ANS4 08F4  
                   _ANS5 08F5                     _ANS6 08F6                     _ANS7 08F7  
                   _ANS8 08F8                     _ANS9 08F9                     _T0IE 005D  
                   _T0IF 005A                     u1170 0073                     _T0ON 00FB  
                   _IOCB 0116                     u1507 0045                     u1517 01C2  
                   u1375 0132                     _PAIE 005B                     _PAIF 0058  
                   u1487 0015                     _PIE1 008C                     u1497 0020  
                   _PEIE 005E                     _INTE 005C                     _INTF 0059  
                   _PR2H 0092                     _PR2L 0091                     _PIR1 000C  
                   _TMR0 0001                     _STRA 0CE8                     _STRB 0CE9  
                   _STRC 0CEA                     _STRD 0CEB                     _WREN 0C62  
                   _WPUA 0095                     _WPUB 0115                     _WPUC 0093  
           ?_READ_EEPROM 0070                     _beep 0299                     _main 000B  
                   btemp 007E                     start 000A             _WRITE_EEPROM 026A  
                  ??_ISR 0070                    _C1CH0 08C8                    _C1CH1 08C9  
                  _C2CH0 08D0                    _C2CH1 08D1                    ?_beep 0076  
                  _C1SEN 0CF5                    _C2REN 0CF4                    _C1POL 08CC  
                  _C2POL 08D4                    _C1OUT 08CE                    _C2OUT 08D6  
                  ?_main 0070                    _EEADR 009B                    _EEDAT 009A  
                  _ANS10 08FA                    _ANS11 08FB                    _EEPGD 0C67  
                  _ANSEL 011E                    _IOCA6 04B6                    _IOCB4 08B4  
                  _IOCB5 08B5                    _IOCB6 08B6                    _IOCB7 08B7  
                  _T1GSS 08D9                    i1l824 0212                    i1l834 0248  
                  _MSCON 001B          __end_of_beepOff 030F                    _VP6EN 08C4  
                  _TMR2H 0013                    _TMR2L 0011                    _PSRCA 0088  
                  _PSRCC 0094                    _PORTA 0005                    _PORTC 0007  
                  _SRCON 019E                    _PULSR 0CF2                    _PULSS 0CF3  
                  u72_25 0224                    _TRISA 0085                    u73_25 0234  
                  _TRISC 0087                    _VRCON 0118                    _WPUB4 08AC  
                  _WPUB5 08AD                    _WPUB6 08AE                    _WPUB7 08AF  
                  pclath 000A                    status 0003                    wtemp0 007E  
   __size_of_delay_x10ms 0013             __end_of_beep 02AF             __end_of_main 01E1  
                 ??_beep 0077                   ??_main 002B            main@reAlertOn 0078  
                 _C1VREN 08C7                   _C2VREN 08C6                   _C2SYNC 08D8  
                 _EEADRH 010F                   _EEDATH 010E                   _EECON1 009C  
                 _ANSELH 011F                   _MC1OUT 08DF                   _MC2OUT 08DE  
                 _T0CON0 001F                   _T2CON0 0012                   i1l4102 0000  
                 i1l4040 0000                   i1l4050 01F1                   i1l4042 0000  
                 i1l4034 0000                   i1l4060 0000                   i1l4052 01F2  
                 i1l4070 0000                   i1l4062 0000                   i1l4080 0213  
                 i1l4048 0000                   i1l4082 0000                   i1l4066 0000  
                 i1l4058 0000                   i1l4076 020E                   i1l4094 023D  
                 i1l4086 021E                   i1l4096 023F                   _INTEDG 040E  
                 _INTCON 000B                   _OSCCON 008F                   _TMR2IE 0461  
                 _TMR2IF 0061                   _PSINKA 0097                   _PSINKC 009F  
                 _OPTION 0081                   _TMR2ON 0092                   _beepOn 0305  
                 _cntCyc 0025                   _cntOff 0026                   _cntTmp 0020  
              ??_beepOff 0072         __end_of_int_init 026A         __end_of_setState 02EE  
                 saved_w 007E         __end_of_sys_init 02F6     __size_of_READ_EEPROM 0008  
         __pcstackCOMMON 0070               __pbssBANK0 0020       __size_of_gpio_init 0017  
READ_EEPROM@ReEepromData 0073               __pmaintext 000B                  ?_beepOn 0070  
             __pintentry 0004                  _CM1CON0 0119                  _CM2CON0 011A  
                _CM2CON1 011B                  _PSTRCON 019D                  _STRSYNC 0CEC  
              ?_int_init 0070              setState@stt 0074                ?_setState 0072  
             _mtOldState 0029          __size_of_beepOn 0005                  _beepOff 030A  
                beep@rep 0076        __end_of_gpio_init 0299                ?_sys_init 0070  
           __size_of_ISR 006E                  _mtState 002A                  _timeOut 0022  
   end_of_initialization 02DF               _lostDetect 0027            ??_delay_x10ms 0074  
             ??_int_init 0072               ??_setState 0074               _timer_init 02C2  
             ??_sys_init 0072       WRITE_EEPROM@EEAddr 0073       WRITE_EEPROM@EEData 0072  
    __end_of_delay_x10ms 02C2           __end_of_beepOn 030A      start_initialization 02D2  
            __end_of_ISR 024F            setState@_tOut 0072                _RegStatus 0024  
          ??_READ_EEPROM 0072            ?_WRITE_EEPROM 0072                 ??_beepOn 0072  
      READ_EEPROM@EEAddr 0072              ?_timer_init 0070              __pbssCOMMON 0079  
          __pcstackBANK0 002B              _delay_x10ms 02AF           ??_WRITE_EEPROM 0073  
      __size_of_int_init 001B      __end_of_READ_EEPROM 02FE        __size_of_setState 000D  
              __ptext460 02C2                __ptext461 0282                __ptext462 02E1  
              __ptext463 026A                __ptext464 02F6                __ptext456 0000  
              __ptext465 0305                __ptext457 02EE                __ptext466 030A  
              __ptext458 0299                __ptext467 02AF                __ptext459 024F  
              __ptext468 01E1                __ptext469 0000                beep@delay 0077  
               ?_beepOff 0070                __pswtext1 0300        __size_of_sys_init 0008  
              _gpio_init 0282                _mode_chek 0028        interrupt_function 0004  
    __size_of_timer_init 0010             delay_x10ms@t 0072               ?_gpio_init 0070  
            _READ_EEPROM 02F6         __size_of_beepOff 0005     __end_of_WRITE_EEPROM 0282  
          __size_of_beep 0016            __size_of_main 01D6                 _int_init 024F  
               _setState 02E1                 _timeTick 0079             ??_timer_init 0072  
               _sys_init 02EE              ??_gpio_init 0072                 intlevel1 0000  
           ?_delay_x10ms 0072       __end_of_timer_init 02D2           delay_x10ms@set 0074  
